EXPORTS
 "_Z10IWLS_logitRKN4arma3MatIdEERKNS_3ColIdEES5_S5_jd"
 "_Z12IWLS_poissonRKN4arma3MatIdEERKNS_3ColIdEES5_S5_jd"
 "_Z14Cdqrls_wrapperRKN4arma3MatIdEERKNS_3ColIdEEdb"
 "_Z4IWLSRKN4arma3MatIdEERKNS_3ColIdEES5_PK11dist_familyS5_jd"
 "_ZGVZ7dataptrP7SEXPRECE3fun"
 "_ZN4arma10eglue_coreINS_10eglue_plusEE5applyINS_3MatIdEENS_4GlueIS5_NS_3ColIdEENS_10glue_timesEEES8_EEvRT_RKNS_5eGlueIT0_T1_S1_EE"
 "_ZN4arma10eglue_coreINS_10eglue_plusEE5applyINS_3MatIdEENS_5eGlueINS_13subview_elem1IdNS4_IjEEEES9_NS_11eglue_minusEEENS6_ISB_S9_NS_9eglue_divEEEEEvRT_RKNS6_IT0_T1_S1_EE"
 "_ZN4arma10glue_times5applyIdLb0ELb0ELb0ENS_3MatIdEENS_3ColIdEEEEvRNS2_IT_EERKT3_RKT4_S6_"
 "_ZN4arma13subview_elem1IdNS_3MatIjEEE10inplace_opINS_15op_internal_equENS1_IdEEEEvRKNS_4BaseIdT0_EE"
 "_ZN4arma13subview_elem2IdNS_3MatIjEES2_E7extractERNS1_IdEERKS3_"
 "_ZN4arma18unwrap_check_mixedINS_3MatIjEEED1Ev"
 "_ZN4arma3ColIdEC1ERKS1_"
 "_ZN4arma3MatIdE9init_coldEv"
 "_ZN4arma3MatIdE9init_warmEjj"
 "_ZN4arma3MatIdE9steal_memERS1_"
 "_ZN4arma3MatIdED1Ev"
 "_ZN4arma3MatIdED2Ev"
 "_ZN4arma3MatIjE9init_warmEjj"
 "_ZN4arma3MatIjED1Ev"
 "_ZN4arma3MatIjED2Ev"
 "_ZN4arma8arrayops10copy_smallIdEEvPT_PKS2_j"
 "_ZN4arma8arrayops10copy_smallIjEEvPT_PKS2_j"
 "_ZN4arma8eop_coreINS_8eop_sqrtEE5applyINS_3MatIdEENS_5eGlueINS6_INS_13subview_elem1IdNS4_IjEEEENS_3eOpIS9_NS_7eop_powEEENS_11eglue_schurEEENS_3ColIdEENS_9eglue_divEEEEEvRT_RKNSA_IT0_S1_EE"
 "_ZN4Rcpp10eval_errorD0Ev"
 "_ZN4Rcpp10eval_errorD1Ev"
 "_ZN4Rcpp10RstreambufILb0EE4syncEv"
 "_ZN4Rcpp10RstreambufILb0EE6xsputnEPKcx"
 "_ZN4Rcpp10RstreambufILb0EE8overflowEi"
 "_ZN4Rcpp10RstreambufILb0EED0Ev"
 "_ZN4Rcpp10RstreambufILb0EED1Ev"
 "_ZN4Rcpp10RstreambufILb1EE4syncEv"
 "_ZN4Rcpp10RstreambufILb1EE6xsputnEPKcx"
 "_ZN4Rcpp10RstreambufILb1EE8overflowEi"
 "_ZN4Rcpp10RstreambufILb1EED0Ev"
 "_ZN4Rcpp10RstreambufILb1EED1Ev"
 "_ZN4Rcpp13RcppArmadillo9arma_wrapIN4arma3ColIdEEEEP7SEXPRECRKT_RKNS_9DimensionE"
 "_ZN4Rcpp13RcppArmadillo9arma_wrapIN4arma3MatIdEEEEP7SEXPRECRKT_RKNS_9DimensionE"
 "_ZN4Rcpp14not_compatibleC1ERKSs"
 "_ZN4Rcpp14not_compatibleD0Ev"
 "_ZN4Rcpp14not_compatibleD1Ev"
 "_ZN4Rcpp19index_out_of_boundsD0Ev"
 "_ZN4Rcpp19index_out_of_boundsD1Ev"
 "_ZN4Rcpp20AttributeProxyPolicyINS_12RObject_ImplINS_15PreserveStorageEEEE14AttributeProxyaSINS_9DimensionEEERS5_RKT_"
 "_ZN4Rcpp4stopERKSs"
 "_ZN4Rcpp4wrapIdEEP7SEXPRECRKN4arma3MatIT_EE"
 "_ZN4Rcpp6r_castILi14EEEP7SEXPRECS2_"
 "_ZN4Rcpp8internal10basic_castILi14EEEP7SEXPRECS3_"
 "_ZN4Rcpp8internal21export_indexing__implIN4arma3ColIdEEdEEvP7SEXPRECRT_NS_6traits17integral_constantIbLb0EEE"
 "_ZN4Rcpp8internal21export_indexing__implIN4arma3ColIjEEjEEvP7SEXPRECRT_NS_6traits17integral_constantIbLb1EEE"
 "_ZN4Rcpp8RostreamILb0EED0Ev"
 "_ZN4Rcpp8RostreamILb0EED1Ev"
 "_ZN4Rcpp8RostreamILb1EED0Ev"
 "_ZN4Rcpp8RostreamILb1EED1Ev"
 "_ZN4Rcpp9exceptionD0Ev"
 "_ZN4Rcpp9exceptionD1Ev"
 "_ZNK4arma19subview_each_commonINS_3MatIdEELj0EE20incompat_size_stringERKS2_"
 "_ZNK4Rcpp10eval_error4whatEv"
 "_ZNK4Rcpp14not_compatible4whatEv"
 "_ZNK4Rcpp19index_out_of_bounds4whatEv"
 "_ZNK4Rcpp9exception4whatEv"
 "_ZTCN4Rcpp8RostreamILb0EEE0_So"
 "_ZTCN4Rcpp8RostreamILb1EEE0_So"
 "_ZTIN4Rcpp10eval_errorE"
 "_ZTIN4Rcpp10RstreambufILb0EEE"
 "_ZTIN4Rcpp10RstreambufILb1EEE"
 "_ZTIN4Rcpp14not_compatibleE"
 "_ZTIN4Rcpp19index_out_of_boundsE"
 "_ZTIN4Rcpp8internal20InterruptedExceptionE"
 "_ZTIN4Rcpp8RostreamILb0EEE"
 "_ZTIN4Rcpp8RostreamILb1EEE"
 "_ZTIN4Rcpp9exceptionE"
 "_ZTISt11logic_error"
 "_ZTISt13runtime_error"
 "_ZTISt9bad_alloc"
 "_ZTISt9exception"
 "_ZTSN4Rcpp10eval_errorE"
 "_ZTSN4Rcpp10RstreambufILb0EEE"
 "_ZTSN4Rcpp10RstreambufILb1EEE"
 "_ZTSN4Rcpp14not_compatibleE"
 "_ZTSN4Rcpp19index_out_of_boundsE"
 "_ZTSN4Rcpp8internal20InterruptedExceptionE"
 "_ZTSN4Rcpp8RostreamILb0EEE"
 "_ZTSN4Rcpp8RostreamILb1EEE"
 "_ZTSN4Rcpp9exceptionE"
 "_ZTSSt11logic_error"
 "_ZTSSt13runtime_error"
 "_ZTSSt9bad_alloc"
 "_ZTSSt9exception"
 "_ZTTN4Rcpp8RostreamILb0EEE"
 "_ZTTN4Rcpp8RostreamILb1EEE"
 "_ZTv0_n24_N4Rcpp8RostreamILb0EED0Ev"
 "_ZTv0_n24_N4Rcpp8RostreamILb0EED1Ev"
 "_ZTv0_n24_N4Rcpp8RostreamILb1EED0Ev"
 "_ZTv0_n24_N4Rcpp8RostreamILb1EED1Ev"
 "_ZTVN4Rcpp10eval_errorE"
 "_ZTVN4Rcpp10RstreambufILb0EEE"
 "_ZTVN4Rcpp10RstreambufILb1EEE"
 "_ZTVN4Rcpp14not_compatibleE"
 "_ZTVN4Rcpp19index_out_of_boundsE"
 "_ZTVN4Rcpp8RostreamILb0EEE"
 "_ZTVN4Rcpp8RostreamILb1EEE"
 "_ZTVN4Rcpp9exceptionE"
 "_ZZ7dataptrP7SEXPRECE3fun"
 "_Z19string_to_try_errorRKSs"
 "_Z24exception_to_r_conditionRKSt9exception"
 "_ZGVZ20rcpp_get_stack_tracevE3fun"
 "_ZGVZ20rcpp_set_stack_traceP7SEXPRECE3fun"
 "_ZGVZ7dataptrP7SEXPRECE3fun"
 "_ZGVZ8demangleRKSsE3fun"
 "_ZGVZN4Rcpp8internal12exitRNGScopeEvE3fun"
 "_ZGVZN4Rcpp8internal13enterRNGScopeEvE3fun"
 "_ZN4arma3MatIdED1Ev"
 "_ZN4arma3MatIdED2Ev"
 "_ZN4Rcpp10eval_errorD0Ev"
 "_ZN4Rcpp10eval_errorD1Ev"
 "_ZN4Rcpp10RstreambufILb0EE4syncEv"
 "_ZN4Rcpp10RstreambufILb0EE6xsputnEPKcx"
 "_ZN4Rcpp10RstreambufILb0EE8overflowEi"
 "_ZN4Rcpp10RstreambufILb0EED0Ev"
 "_ZN4Rcpp10RstreambufILb0EED1Ev"
 "_ZN4Rcpp10RstreambufILb1EE4syncEv"
 "_ZN4Rcpp10RstreambufILb1EE6xsputnEPKcx"
 "_ZN4Rcpp10RstreambufILb1EE8overflowEi"
 "_ZN4Rcpp10RstreambufILb1EED0Ev"
 "_ZN4Rcpp10RstreambufILb1EED1Ev"
 "_ZN4Rcpp12not_a_matrixD0Ev"
 "_ZN4Rcpp12not_a_matrixD1Ev"
 "_ZN4Rcpp13RcppArmadillo9arma_wrapIN4arma3ColIdEEEEP7SEXPRECRKT_RKNS_9DimensionE"
 "_ZN4Rcpp14not_compatibleC1ERKSs"
 "_ZN4Rcpp14not_compatibleD0Ev"
 "_ZN4Rcpp14not_compatibleD1Ev"
 "_ZN4Rcpp22ArmaMat_InputParameterIdN4arma3MatIdEERKS3_NS_6traits17integral_constantIbLb0EEEED2Ev"
 "_ZN4Rcpp22ArmaMat_InputParameterIdN4arma3MatIdEERS3_NS_6traits17integral_constantIbLb0EEEED2Ev"
 "_ZN4Rcpp22ArmaVec_InputParameterIdN4arma3ColIdEEKS3_NS_6traits17integral_constantIbLb0EEEED2Ev"
 "_ZN4Rcpp22ArmaVec_InputParameterIdN4arma3ColIdEERKS3_NS_6traits17integral_constantIbLb0EEEED2Ev"
 "_ZN4Rcpp22ArmaVec_InputParameterIdN4arma3ColIdEERS3_NS_6traits17integral_constantIbLb0EEEED2Ev"
 "_ZN4Rcpp4stopERKSs"
 "_ZN4Rcpp4wrapIdEEP7SEXPRECRKN4arma3ColIT_EE"
 "_ZN4Rcpp6r_castILi10EEEP7SEXPRECS2_"
 "_ZN4Rcpp6r_castILi13EEEP7SEXPRECS2_"
 "_ZN4Rcpp6r_castILi14EEEP7SEXPRECS2_"
 "_ZN4Rcpp8internal10basic_castILi10EEEP7SEXPRECS3_"
 "_ZN4Rcpp8internal10basic_castILi13EEEP7SEXPRECS3_"
 "_ZN4Rcpp8internal10basic_castILi14EEEP7SEXPRECS3_"
 "_ZN4Rcpp8internal12exitRNGScopeEv"
 "_ZN4Rcpp8internal12primitive_asIbEET_P7SEXPREC"
 "_ZN4Rcpp8internal12primitive_asIdEET_P7SEXPREC"
 "_ZN4Rcpp8internal12primitive_asIiEET_P7SEXPREC"
 "_ZN4Rcpp8internal12primitive_asIjEET_P7SEXPREC"
 "_ZN4Rcpp8internal21export_indexing__implIN4arma3ColIdEEdEEvP7SEXPRECRT_NS_6traits17integral_constantIbLb0EEE"
 "_ZN4Rcpp8internal21export_indexing__implIN4arma3MatIdEEdEEvP7SEXPRECRT_NS_6traits17integral_constantIbLb0EEE"
 "_ZN4Rcpp8RostreamILb0EED0Ev"
 "_ZN4Rcpp8RostreamILb0EED1Ev"
 "_ZN4Rcpp8RostreamILb1EED0Ev"
 "_ZN4Rcpp8RostreamILb1EED1Ev"
 "_ZN4Rcpp9exceptionD0Ev"
 "_ZN4Rcpp9exceptionD1Ev"
 "_ZNK4Rcpp10eval_error4whatEv"
 "_ZNK4Rcpp12not_a_matrix4whatEv"
 "_ZNK4Rcpp14not_compatible4whatEv"
 "_ZNK4Rcpp9exception4whatEv"
 "_ZTCN4Rcpp8RostreamILb0EEE0_So"
 "_ZTCN4Rcpp8RostreamILb1EEE0_So"
 "_ZTIN4Rcpp10eval_errorE"
 "_ZTIN4Rcpp10RstreambufILb0EEE"
 "_ZTIN4Rcpp10RstreambufILb1EEE"
 "_ZTIN4Rcpp12not_a_matrixE"
 "_ZTIN4Rcpp14not_compatibleE"
 "_ZTIN4Rcpp8internal20InterruptedExceptionE"
 "_ZTIN4Rcpp8RostreamILb0EEE"
 "_ZTIN4Rcpp8RostreamILb1EEE"
 "_ZTIN4Rcpp9exceptionE"
 "_ZTISt11logic_error"
 "_ZTISt9bad_alloc"
 "_ZTISt9exception"
 "_ZTSN4Rcpp10eval_errorE"
 "_ZTSN4Rcpp10RstreambufILb0EEE"
 "_ZTSN4Rcpp10RstreambufILb1EEE"
 "_ZTSN4Rcpp12not_a_matrixE"
 "_ZTSN4Rcpp14not_compatibleE"
 "_ZTSN4Rcpp8internal20InterruptedExceptionE"
 "_ZTSN4Rcpp8RostreamILb0EEE"
 "_ZTSN4Rcpp8RostreamILb1EEE"
 "_ZTSN4Rcpp9exceptionE"
 "_ZTSSt11logic_error"
 "_ZTSSt9bad_alloc"
 "_ZTSSt9exception"
 "_ZTTN4Rcpp8RostreamILb0EEE"
 "_ZTTN4Rcpp8RostreamILb1EEE"
 "_ZTv0_n24_N4Rcpp8RostreamILb0EED0Ev"
 "_ZTv0_n24_N4Rcpp8RostreamILb0EED1Ev"
 "_ZTv0_n24_N4Rcpp8RostreamILb1EED0Ev"
 "_ZTv0_n24_N4Rcpp8RostreamILb1EED1Ev"
 "_ZTVN4Rcpp10eval_errorE"
 "_ZTVN4Rcpp10RstreambufILb0EEE"
 "_ZTVN4Rcpp10RstreambufILb1EEE"
 "_ZTVN4Rcpp12not_a_matrixE"
 "_ZTVN4Rcpp14not_compatibleE"
 "_ZTVN4Rcpp8RostreamILb0EEE"
 "_ZTVN4Rcpp8RostreamILb1EEE"
 "_ZTVN4Rcpp9exceptionE"
 "_ZZ20rcpp_get_stack_tracevE3fun"
 "_ZZ20rcpp_set_stack_traceP7SEXPRECE3fun"
 "_ZZ7dataptrP7SEXPRECE3fun"
 "_ZZ8demangleRKSsE3fun"
 "_ZZN4arma16arma_stream_err1IcEERSoPSoE11stream_err1"
 "_ZZN4arma16arma_stream_err2IcEERSoPSoE11stream_err2"
 "_ZZN4Rcpp8internal12exitRNGScopeEvE3fun"
 "_ZZN4Rcpp8internal13enterRNGScopeEvE3fun"
 "dynamichazard_bigglm_regcf_rcpp"
 "dynamichazard_bigglm_updateQR_rcpp"
 "dynamichazard_ddhazard_fit_cpp"
 "dynamichazard_get_risk_obj_rcpp"
 "dynamichazard_IWLS_logit"
 "dynamichazard_IWLS_poisson"
 "dynamichazard_logLike_cpp"
 "_Z12bigglm_regcfR6qr_obj"
 "_Z13binomialCoeffii"
 "_Z17bigglm_regcf_rcppRN4arma3ColIdEES2_S2_RdRbS2_"
 "_Z20bigglm_updateQR_rcppRN4arma3ColIdEES2_S2_RdRbS2_SsRKNS_3MatIdEERKS1_SA_S2_"
 "_ZN15bigglm_updateQRI11poisson_famE6updateER6qr_objRKN4arma3MatIdEERKNS4_3ColIdEESC_RSA_"
 "_ZN15bigglm_updateQRI9logit_famE6updateER6qr_objRKN4arma3MatIdEERKNS4_3ColIdEESC_RSA_"
 "_ZN4arma3MatIdED1Ev"
 "_ZN4arma3MatIdED2Ev"
 "_ZN4Rcpp10RstreambufILb0EE4syncEv"
 "_ZN4Rcpp10RstreambufILb0EE6xsputnEPKcx"
 "_ZN4Rcpp10RstreambufILb0EE8overflowEi"
 "_ZN4Rcpp10RstreambufILb0EED0Ev"
 "_ZN4Rcpp10RstreambufILb0EED1Ev"
 "_ZN4Rcpp10RstreambufILb1EE4syncEv"
 "_ZN4Rcpp10RstreambufILb1EE6xsputnEPKcx"
 "_ZN4Rcpp10RstreambufILb1EE8overflowEi"
 "_ZN4Rcpp10RstreambufILb1EED0Ev"
 "_ZN4Rcpp10RstreambufILb1EED1Ev"
 "_ZN4Rcpp8RostreamILb0EED0Ev"
 "_ZN4Rcpp8RostreamILb0EED1Ev"
 "_ZN4Rcpp8RostreamILb1EED0Ev"
 "_ZN4Rcpp8RostreamILb1EED1Ev"
 "_ZTCN4Rcpp8RostreamILb0EEE0_So"
 "_ZTCN4Rcpp8RostreamILb1EEE0_So"
 "_ZTIN4Rcpp10RstreambufILb0EEE"
 "_ZTIN4Rcpp10RstreambufILb1EEE"
 "_ZTIN4Rcpp8RostreamILb0EEE"
 "_ZTIN4Rcpp8RostreamILb1EEE"
 "_ZTISt11logic_error"
 "_ZTISt9bad_alloc"
 "_ZTISt9exception"
 "_ZTSN4Rcpp10RstreambufILb0EEE"
 "_ZTSN4Rcpp10RstreambufILb1EEE"
 "_ZTSN4Rcpp8RostreamILb0EEE"
 "_ZTSN4Rcpp8RostreamILb1EEE"
 "_ZTSSt11logic_error"
 "_ZTSSt9bad_alloc"
 "_ZTSSt9exception"
 "_ZTTN4Rcpp8RostreamILb0EEE"
 "_ZTTN4Rcpp8RostreamILb1EEE"
 "_ZTv0_n24_N4Rcpp8RostreamILb0EED0Ev"
 "_ZTv0_n24_N4Rcpp8RostreamILb0EED1Ev"
 "_ZTv0_n24_N4Rcpp8RostreamILb1EED0Ev"
 "_ZTv0_n24_N4Rcpp8RostreamILb1EED1Ev"
 "_ZTVN4Rcpp10RstreambufILb0EEE"
 "_ZTVN4Rcpp10RstreambufILb1EEE"
 "_ZTVN4Rcpp8RostreamILb0EEE"
 "_ZTVN4Rcpp8RostreamILb1EEE"
 "_Z16ddhazard_fit_cppRN4arma3MatIdEES2_RKNS_3ColIdEES6_S6_S6_S1_S1_RKN4Rcpp6VectorILi19ENS7_15PreserveStorageEEERKS1_dijdjibSsNS7_8NullableINS8_ILi14ES9_EEEESH_SH_SH_SH_SsSsibjSs"
 "_Z20relative_norm_changeRKN4arma3MatIdEES3_"
 "_Z22estimate_fixed_effectsI11poisson_famEvP12problem_dataiR15bigglm_updateQRIT_E"
 "_Z22estimate_fixed_effectsI9logit_famEvP12problem_dataiR15bigglm_updateQRIT_E"
 "_Z7dataptrP7SEXPREC"
 "_Z8my_printIN4arma11subview_colIdEEEvRKT_Ss"
 "_Z8my_printIN4arma3MatIdEEEvRKT_Ss"
 "_Z8my_printIN4arma8diagviewIdEEEvRKT_Ss"
 "_ZGVN4arma5DatumIdE3nanE"
 "_ZGVZ7dataptrP7SEXPRECE3fun"
 "_ZN10EKF_helper13filter_workerclEPKjRKS2_RKN4arma3ColIdEERKbRKiSD_RKdSF_"
 "_ZN10EKF_helper19filter_worker_logit8do_compsEPKjRiRKN4arma3ColIdEERKbRKiRKdSE_"
 "_ZN10EKF_helper20parallel_filter_stepEPKjS1_RKN4arma3ColIdEERKbRKiRKdSC_"
 "_ZN10EKF_helper25filter_worker_exponential8do_compsEPKjRiRKN4arma3ColIdEERKbRKiRKdSE_"
 "_ZN10EKF_solver5solveEv"
 "_ZN11thread_pool13worker_threadEj"
 "_ZN11thread_poolC1Ej"
 "_ZN11thread_poolD1Ev"
 "_ZN12problem_dataC1ERN4arma3MatIdEES3_RKNS0_3ColIdEES7_RKNS4_IiEES7_S7_S3_S3_RKN4Rcpp6VectorILi19ENSB_15PreserveStorageEEERKS2_diidbibbNSB_8NullableINSC_ILi14ESD_EEEESs"
 "_ZN12problem_dataC2ERN4arma3MatIdEES3_RKNS0_3ColIdEES7_RKNS4_IiEES7_S7_S3_S3_RKN4Rcpp6VectorILi19ENSB_15PreserveStorageEEERKS2_diidbibbNSB_8NullableINSC_ILi14ESD_EEEESs"
 "_ZN12problem_dataD2Ev"
 "_ZN14UKF_solver_New20compute_sigma_pointsERKN4arma3ColIdEERNS0_3MatIdEERKS6_"
 "_ZN14UKF_solver_New5solveEv"
 "_ZN14UKF_solver_NewC2ER12problem_dataRN4Rcpp8NullableINS2_6VectorILi14ENS2_15PreserveStorageEEEEES8_S8_"
 "_ZN14UKF_solver_Org20compute_sigma_pointsERKN4arma3ColIdEERNS0_3MatIdEERKS6_"
 "_ZN14UKF_solver_Org5solveEv"
 "_ZN14UKF_solver_OrgC1ER12problem_dataRN4Rcpp8NullableINS2_6VectorILi14ENS2_15PreserveStorageEEEEE"
 "_ZN16function_wrapper9impl_typeISt13packaged_taskIFvvEEE4callEv"
 "_ZN16function_wrapper9impl_typeISt13packaged_taskIFvvEEED0Ev"
 "_ZN16function_wrapper9impl_typeISt13packaged_taskIFvvEEED1Ev"
 "_ZN16problem_data_EKFC1ERN4arma3MatIdEES3_RKNS0_3ColIdEES7_RKNS4_IiEES7_S7_S3_S3_RKN4Rcpp6VectorILi19ENSB_15PreserveStorageEEERKS2_NSB_8NullableINSC_ILi14ESD_EEEESL_diidbibbjbSs"
 "_ZN17thread_safe_queueI16function_wrapperED1Ev"
 "_ZN20UKF_solver_New_logit21Compute_intermediatesERKN4arma3ColIjEENS1_IdEEiddRS5_RNS0_3MatIdEE"
 "_ZN26UKF_solver_New_exponential21Compute_intermediatesERKN4arma3ColIjEENS1_IdEEiddRS5_RNS0_3MatIdEE"
 "_ZN4arma10arma_checkIA55_cEEvbRKT_"
 "_ZN4arma10arma_checkIA57_cEEvbRKT_"
 "_ZN4arma10eglue_coreINS_10eglue_plusEE18apply_inplace_plusINS_4GlueINS_3eOpINS_5eGlueINS_3ColIdEES8_NS_11eglue_minusEEENS_16eop_scalar_timesEEENS_2OpISA_NS_9op_htransEEENS_10glue_timesEEENSD_INS6_INS5_IS8_SB_EENS5_IS8_NS_20eop_scalar_minus_preEEENS_11eglue_schurEEENS_10op_diagmatEEEEEvRNS_3MatINT_9elem_typeEEERKNS6_ISQ_T0_S1_EE"
 "_ZN4arma10eglue_coreINS_10eglue_plusEE5applyINS_3MatIdEENS_3ColIdEENS_3eOpIS7_NS_16eop_scalar_timesEEEEEvRT_RKNS_5eGlueIT0_T1_S1_EE"
 "_ZN4arma10eglue_coreINS_10eglue_plusEE5applyINS_3MatIdEENS_3ColIdEENS_4GlueINS_3eOpIS5_NS_16eop_scalar_timesEEENS_5eGlueIS7_S7_NS_11eglue_schurEEENS_10glue_timesEEEEEvRT_RKNSC_IT0_T1_S1_EE"
 "_ZN4arma10eglue_coreINS_10eglue_plusEE5applyINS_3MatIdEENS_3ColIdEENS_4GlueINS_3eOpIS5_NS_16eop_scalar_timesEEES7_NS_10glue_timesEEEEEvRT_RKNS_5eGlueIT0_T1_S1_EE"
 "_ZN4arma10eglue_coreINS_10eglue_plusEE5applyINS_3MatIdEENS_3ColIdEENS_4GlueIS5_NS_5eGlueIS7_S7_NS_11eglue_minusEEENS_10glue_timesEEEEEvRT_RKNS9_IT0_T1_S1_EE"
 "_ZN4arma10eglue_coreINS_10eglue_plusEE5applyINS_3MatIdEENS_3ColIdEENS_4GlueIS5_NS8_IS5_NS_6mtGlueIdNS_4mtOpIjNS_13subview_elem1IiNS4_IjEEEENS_9op_rel_eqEEES7_NS_16glue_mixed_minusEEENS_10glue_timesEEESI_EEEEvRT_RKNS_5eGlueIT0_T1_S1_EE"
 "_ZN4arma10eglue_coreINS_10eglue_plusEE5applyINS_3MatIdEENS_3eOpINS_3ColIdEENS_16eop_scalar_timesEEENS6_INS_2OpINS_7subviewIdEENS_6op_sumEEES9_EEEEvRT_RKNS_5eGlueIT0_T1_S1_EE"
 "_ZN4arma10eglue_coreINS_10eglue_plusEE5applyINS_3MatIdEENS_4GlueINS6_IS5_S5_NS_10glue_timesEEES5_S7_EENS_3eOpIS5_NS_16eop_scalar_timesEEEEEvRT_RKNS_5eGlueIT0_T1_S1_EE"
 "_ZN4arma10eglue_coreINS_10eglue_plusEE5applyINS_3MatIdEES5_S5_EEvRT_RKNS_5eGlueIT0_T1_S1_EE"
 "_ZN4arma10eglue_coreINS_11eglue_minusEE5applyINS_3MatIdEENS_11subview_colIdEENS_5eGlueINS8_INS_3ColIdEENS_3eOpINS_7subviewIdEENS_7eop_powEEENS_11eglue_schurEEESA_SG_EEEEvRT_RKNS8_IT0_T1_S1_EE"
 "_ZN4arma10eglue_coreINS_11eglue_minusEE5applyINS_3MatIdEENS_3ColIdEENS_3eOpIS7_NS_16eop_scalar_timesEEEEEvRT_RKNS_5eGlueIT0_T1_S1_EE"
 "_ZN4arma10eglue_coreINS_11eglue_minusEE5applyINS_3MatIdEENS_3ColIdEENS_4GlueIS5_S7_NS_10glue_timesEEEEEvRT_RKNS_5eGlueIT0_T1_S1_EE"
 "_ZN4arma10eglue_coreINS_11eglue_minusEE5applyINS_3MatIdEENS_4GlueINS6_INS6_IS5_S5_NS_10glue_timesEEES5_S7_EENS_2OpINS_3ColIdEENS_10op_diagmatEEENS_15glue_times_diagEEES5_EEvRT_RKNS_5eGlueIT0_T1_S1_EE"
 "_ZN4arma10eglue_coreINS_11eglue_minusEE5applyINS_3MatIdEES5_NS_2OpIS5_NS_9op_htransEEEEEvRT_RKNS_5eGlueIT0_T1_S1_EE"
 "_ZN4arma10eglue_coreINS_11eglue_minusEE5applyINS_3MatIdEES5_NS_4GlueINS6_IS5_S5_NS_10glue_timesEEENS_2OpIS5_NS_9op_htransEEES7_EEEEvRT_RKNS_5eGlueIT0_T1_S1_EE"
 "_ZN4arma10eglue_coreINS_11eglue_minusEE5applyINS_3MatIdEES5_NS_4GlueIS5_S5_NS_10glue_timesEEEEEvRT_RKNS_5eGlueIT0_T1_S1_EE"
 "_ZN4arma10eglue_coreINS_11eglue_minusEE5applyINS_3MatIdEES5_S5_EEvRT_RKNS_5eGlueIT0_T1_S1_EE"
 "_ZN4arma10eglue_coreINS_11eglue_schurEE5applyINS_3MatIdEENS_3ColIdEES7_EEvRT_RKNS_5eGlueIT0_T1_S1_EE"
 "_ZN4arma10eglue_coreINS_9eglue_divEE5applyINS_3MatIdEENS_5eGlueINS_3eOpINS_11subview_colIdEENS_16eop_scalar_timesEEENS_3ColIdEENS_11eglue_schurEEES9_EEvRT_RKNS6_IT0_T1_S1_EE"
 "_ZN4arma10glue_times18apply_inplace_plusINS_3ColIdEENS_2OpIS3_NS_10op_htrans2EEEEEvRNS_3MatINT_9elem_typeEEERKNS_4GlueIS8_T0_S0_EEi"
 "_ZN4arma10glue_times18apply_inplace_plusINS_3eOpINS_5eGlueINS_3ColIdEES5_NS_11eglue_minusEEENS_16eop_scalar_timesEEENS_2OpIS7_NS_9op_htransEEEEEvRNS_3MatINT_9elem_typeEEERKNS_4GlueISE_T0_S0_EEi"
 "_ZN4arma10glue_times5applyIdLb0ELb0ELb0ELb0ENS_3MatIdEES3_S3_EEvRNS2_IT_EERKT4_RKT5_RKT6_S4_"
 "_ZN4arma10glue_times5applyIdLb0ELb0ELb0ENS_3MatIdEES3_EEvRNS2_IT_EERKT3_RKT4_S4_"
 "_ZN4arma10glue_times5applyIdLb0ELb0ELb1ELb0ENS_3MatIdEES3_S3_EEvRNS2_IT_EERKT4_RKT5_RKT6_S4_"
 "_ZN4arma10glue_times5applyIdLb0ELb0ELb1ENS_3MatIdEENS_3ColIdEEEEvRNS2_IT_EERKT3_RKT4_S6_"
 "_ZN4arma10glue_times5applyIdLb0ELb0ELb1ENS_3MatIdEES3_EEvRNS2_IT_EERKT3_RKT4_S4_"
 "_ZN4arma10glue_times5applyIdLb0ELb1ELb0ENS_3MatIdEES3_EEvRNS2_IT_EERKT3_RKT4_S4_"
 "_ZN4arma10glue_times5applyIdLb1ELb0ELb0ENS_3MatIdEENS_3ColIdEEEEvRNS2_IT_EERKT3_RKT4_S6_"
 "_ZN4arma10glue_times5applyIdLb1ELb0ELb0ENS_3MatIdEES3_EEvRNS2_IT_EERKT3_RKT4_S4_"
 "_ZN4arma10op_diagmat5applyINS_3ColIdEEEEvRNS_3MatINT_9elem_typeEEERKNS_2OpIS5_S0_EE"
 "_ZN4arma10op_diagmat5applyINS_5eGlueINS_3eOpINS_3ColIdEENS_16eop_scalar_timesEEENS3_IS5_NS_20eop_scalar_minus_preEEENS_11eglue_schurEEEEEvRNS_3MatINT_9elem_typeEEERKNS_2OpISD_S0_EE"
 "_ZN4arma11subview_colIdEC1ERKNS_3MatIdEEj"
 "_ZN4arma11subview_colIdEC1ERKNS_3MatIdEEjjj"
 "_ZN4arma11syrk_helper35inplace_copy_upper_tri_to_lower_triIdEEvRNS_3MatIT_EE"
 "_ZN4arma12arma_ostream13modify_streamIdEExRSoPKT_j"
 "_ZN4arma12arma_ostream15print_elem_zeroIdEEvRSob"
 "_ZN4arma12arma_ostream5printIdEEvRSoRKNS_3MatIT_EEb"
 "_ZN4arma12unwrap_checkINS_3MatIdEEED1Ev"
 "_ZN4arma13subview_each1INS_3MatIdEELj0EEmIIS2_EEvRKNS_4BaseIdT_EE"
 "_ZN4arma13subview_elem1IdNS_3MatIjEEE7extractERNS1_IdEERKS3_"
 "_ZN4arma13subview_elem1IiNS_3MatIjEEE7extractERNS1_IiEERKS3_"
 "_ZN4arma13subview_elem2IdNS_3MatIjEES2_E7extractERNS1_IdEERKS3_"
 "_ZN4arma15glue_times_diag5applyINS_4GlueINS2_INS_3MatIdEES4_NS_10glue_timesEEES4_S5_EENS_2OpINS_3ColIdEENS_10op_diagmatEEEEEvRNS3_INT_9elem_typeEEERKNS2_ISD_T0_S0_EE"
 "_ZN4arma16gemm_emul_tinysqILb0ELb0ELb0EE5applyIdNS_3MatIdEES4_EEvRNS3_IT_EERKT0_RKT1_S5_S5_"
 "_ZN4arma16gemm_emul_tinysqILb0ELb1ELb0EE5applyIdNS_3MatIdEES4_EEvRNS3_IT_EERKT0_RKT1_S5_S5_"
 "_ZN4arma16gemm_emul_tinysqILb1ELb0ELb0EE5applyIdNS_3MatIdEES4_EEvRNS3_IT_EERKT0_RKT1_S5_S5_"
 "_ZN4arma16gemv_emul_tinysqILb0ELb0ELb0EE5applyIdNS_3MatIdEEEEvPT_RKT0_PKS5_S5_S5_"
 "_ZN4arma16gemv_emul_tinysqILb0ELb1ELb0EE5applyIdNS_3MatIdEEEEvPT_RKT0_PKS5_S5_S5_"
 "_ZN4arma16gemv_emul_tinysqILb0ELb1ELb1EE5applyIdNS_3ColIdEEEEvPT_RKT0_PKS5_S5_S5_"
 "_ZN4arma16gemv_emul_tinysqILb0ELb1ELb1EE5applyIdNS_3MatIdEEEEvPT_RKT0_PKS5_S5_S5_"
 "_ZN4arma16gemv_emul_tinysqILb1ELb0ELb0EE5applyIdNS_3MatIdEEEEvPT_RKT0_PKS5_S5_S5_"
 "_ZN4arma16gemv_emul_tinysqILb1ELb1ELb0EE5applyIdNS_3ColIdEEEEvPT_RKT0_PKS5_S5_S5_"
 "_ZN4arma16gemv_emul_tinysqILb1ELb1ELb0EE5applyIdNS_3MatIdEEEEvPT_RKT0_PKS5_S5_S5_"
 "_ZN4arma16glue_mixed_minus5applyINS_4mtOpIjNS_13subview_elem1IiNS_3MatIjEEEENS_9op_rel_eqEEENS_3ColIdEEEEvRNS4_INS_11eT_promoterIT_T0_E2eTEEERKNS_6mtGlueISF_SC_SD_S0_EE"
 "_ZN4arma17subview_each1_aux12operator_divINS_3MatIdEELj0ES3_EENS2_INT_9elem_typeEEERKNS_13subview_each1IS4_XT0_EEERKNS_4BaseIS5_T1_EE"
 "_ZN4arma17subview_each1_aux14operator_schurINS_3MatIdEELj1ENS_2OpINS_3ColIdEENS_9op_htransEEEEENS2_INT_9elem_typeEEERKNS_13subview_each1IS9_XT0_EEERKNS_4BaseISA_T1_EE"
 "_ZN4arma17subview_each1_aux14operator_schurINS_7subviewIdEELj1ENS_2OpINS_3ColIdEENS_9op_htransEEEEENS_3MatINT_9elem_typeEEERKNS_13subview_each1ISA_XT0_EEERKNS_4BaseISB_T1_EE"
 "_ZN4arma18unwrap_check_mixedINS_3MatIjEEEC1IdEERKS2_RKNS1_IT_EE"
 "_ZN4arma18unwrap_check_mixedINS_3MatIjEEED1Ev"
 "_ZN4arma27glue_times_redirect2_helperILb0EE5applyINS_2OpINS_13subview_elem2IdNS_3MatIjEES6_EENS_9op_htransEEENS_11subview_colIdEEEEvRNS5_INT_9elem_typeEEERKNS_4GlueISC_T0_NS_10glue_timesEEE"
 "_ZN4arma27glue_times_redirect2_helperILb0EE5applyINS_3eOpINS_5eGlueINS_3ColIdEES6_NS_11eglue_minusEEENS_16eop_scalar_timesEEENS_2OpIS8_NS_9op_htransEEEEEvRNS_3MatINT_9elem_typeEEERKNS_4GlueISF_T0_NS_10glue_timesEEE"
 "_ZN4arma27glue_times_redirect2_helperILb0EE5applyINS_3MatIdEENS_3ColIdEEEEvRNS3_INT_9elem_typeEEERKNS_4GlueIS7_T0_NS_10glue_timesEEE"
 "_ZN4arma27glue_times_redirect2_helperILb0EE5applyINS_3MatIdEENS_5eGlueINS_3ColIdEES7_NS_11eglue_minusEEEEEvRNS3_INT_9elem_typeEEERKNS_4GlueISA_T0_NS_10glue_timesEEE"
 "_ZN4arma27glue_times_redirect2_helperILb0EE5applyINS_3MatIdEES4_EEvRNS3_INT_9elem_typeEEERKNS_4GlueIS5_T0_NS_10glue_timesEEE"
 "_ZN4arma27glue_times_redirect3_helperILb0EE5applyINS_3MatIdEES4_S4_EEvRNS3_INT_9elem_typeEEERKNS_4GlueINS9_IS5_T0_NS_10glue_timesEEET1_SB_EE"
 "_ZN4arma27glue_times_redirect3_helperILb0EE5applyINS_4GlueINS3_INS3_INS_3MatIdEES5_NS_10glue_timesEEES5_S6_EENS_2OpINS_3ColIdEENS_10op_diagmatEEENS_15glue_times_diagEEENS9_IS5_NS_9op_htransEEES5_EEvRNS4_INT_9elem_typeEEERKNS3_INS3_ISI_T0_S6_EET1_S6_EE"
 "_ZN4arma27glue_times_redirect3_helperILb0EE5applyINS_5eGlueINS_3GenINS_3MatIdEENS_7gen_eyeEEENS_4GlueIS6_NS_2OpIS6_NS_9op_htransEEENS_10glue_timesEEENS_11eglue_minusEEES6_S6_EEvRNS5_INT_9elem_typeEEERKNS9_INS9_ISH_T0_SD_EET1_SD_EE"
 "_ZN4arma3ColIdEaSEOS1_"
 "_ZN4arma3ColIdEC1ERKS1_"
 "_ZN4arma3ColIdEC1INS_4GlueINS_2OpINS_3MatIdEENS_9op_htransEEES1_NS_10glue_timesEEEEERKNS_4BaseIdT_EE"
 "_ZN4arma3ColIdEC1INS_7subviewIdEEEERKNS_4BaseIdT_EE"
 "_ZN4arma3ColIjEC1INS_3eOpIS1_NS_21eop_scalar_minus_postEEEEERKNS_4BaseIjT_EE"
 "_ZN4arma3invINS_5eGlueINS_2OpINS_3ColIdEENS_10op_diagmatEEENS_3MatIdEENS_10eglue_plusEEEEENS_10enable_if2IXsrNS_22is_supported_blas_typeINT_9elem_typeEEE5valueEbE6resultERNS7_ISE_EERKNS_4BaseISE_SD_EE"
 "_ZN4arma3MatIdE5resetEv"
 "_ZN4arma3MatIdE5zerosEjj"
 "_ZN4arma3MatIdE9init_coldEv"
 "_ZN4arma3MatIdE9init_warmEjj"
 "_ZN4arma3MatIdE9steal_memERS1_"
 "_ZN4arma3MatIdEaSERKNS_7subviewIdEE"
 "_ZN4arma3MatIdEaSERKS1_"
 "_ZN4arma3MatIdEaSINS_5eGlueINS_3eOpINS_11subview_colIdEENS_16eop_scalar_timesEEENS_3ColIdEENS_11eglue_schurEEES6_NS_9eglue_divEEERKS1_RKNS3_IT_T0_T1_EE"
 "_ZN4arma3MatIdEaSINS_5eGlueIS1_NS_2OpIS1_NS_9op_htransEEENS_10eglue_plusEEENS_19eop_scalar_div_postEEERKS1_RKNS_3eOpIT_T0_EE"
 "_ZN4arma3MatIdEC1ERKS1_"
 "_ZN4arma3MatIdED1Ev"
 "_ZN4arma3MatIdED2Ev"
 "_ZN4arma3MatIiE9init_warmEjj"
 "_ZN4arma3MatIiED1Ev"
 "_ZN4arma3MatIiED2Ev"
 "_ZN4arma3MatIjE5resetEv"
 "_ZN4arma3MatIjE9init_coldEv"
 "_ZN4arma3MatIjE9init_warmEjj"
 "_ZN4arma3MatIjEaSERKNS_7subviewIjEE"
 "_ZN4arma3MatIjEC1ERKS1_"
 "_ZN4arma3MatIjED1Ev"
 "_ZN4arma3MatIjED2Ev"
 "_ZN4arma4CubeIdE5sliceEj"
 "_ZN4arma4CubeIdE9init_coldEv"
 "_ZN4arma4CubeIdE9steal_memERS1_"
 "_ZN4arma4CubeIdED1Ev"
 "_ZN4arma4gemvILb0ELb0ELb0EE15apply_blas_typeIdNS_3MatIdEEEEvPT_RKT0_PKS5_S5_S5_"
 "_ZN4arma4gemvILb0ELb1ELb0EE15apply_blas_typeIdNS_3MatIdEEEEvPT_RKT0_PKS5_S5_S5_"
 "_ZN4arma4gemvILb1ELb0ELb0EE15apply_blas_typeIdNS_3ColIdEEEEvPT_RKT0_PKS5_S5_S5_"
 "_ZN4arma5DatumIdE3nanE"
 "_ZN4arma5ProxyINS_2OpINS_3ColIdEENS_10op_diagmatEEEEC1ERKS5_"
 "_ZN4arma5ProxyINS_2OpINS_4GlueINS_3MatIdEES4_NS_10glue_timesEEENS_9op_htransEEEED1Ev"
 "_ZN4arma5ProxyINS_2OpINS_4GlueINS2_INS_3MatIdEES4_NS_10glue_timesEEES4_S5_EENS_9op_htransEEEED1Ev"
 "_ZN4arma5ProxyINS_4GlueINS_3MatIdEENS_3ColIdEENS_10glue_timesEEEEC1ERKS7_"
 "_ZN4arma5ProxyINS_4GlueINS_3MatIdEES3_NS_10glue_timesEEEEC1ERKS5_"
 "_ZN4arma6auxlib16solve_approx_svdINS_4GlueINS_3MatIdEES4_NS_10glue_timesEEEEEbRNS3_INT_8pod_typeEEESA_RKNS_4BaseIS8_S7_EE"
 "_ZN4arma6auxlib17solve_approx_fastINS_4GlueINS_3MatIdEES4_NS_10glue_timesEEEEEbRNS3_INT_9elem_typeEEESA_RKNS_4BaseIS8_S7_EE"
 "_ZN4arma6auxlib17solve_square_fastINS_4GlueINS_3MatIdEES4_NS_10glue_timesEEEEEbRNS3_INT_9elem_typeEEESA_RKNS_4BaseIS8_S7_EE"
 "_ZN4arma6auxlib18inv_inplace_lapackIdEEbRNS_3MatIT_EE"
 "_ZN4arma6auxlib19inv_noalias_tinymatIdEEbRNS_3MatIT_EERKS4_j"
 "_ZN4arma6auxlib19solve_square_refineINS_4GlueINS_3MatIdEES4_NS_10glue_timesEEEEEbRNS3_INT_8pod_typeEEERS8_SA_RKNS_4BaseIS8_S7_EEb"
 "_ZN4arma6auxlib6svd_dcIdNS_3MatIdEEEEbRNS_3ColIT_EERKNS_4BaseIS5_T0_EERjSD_"
 "_ZN4arma6auxlib6svd_dcIdNS_5eGlueINS_3MatIdEES4_NS_11eglue_minusEEEEEbRNS_3ColIT_EERKNS_4BaseIS8_T0_EERjSG_"
 "_ZN4arma6op_dot10direct_dotIdEENS_14arma_real_onlyIT_E6resultEjPKS3_S7_"
 "_ZN4arma6op_sum19apply_noalias_proxyINS_7subviewIdEEEEvRNS_3MatINT_9elem_typeEEERKNS_5ProxyIS5_EEj"
 "_ZN4arma7op_norm10vec_norm_2INS_5eGlueINS_11subview_colIdEENS_3ColIdEENS_11eglue_minusEEEEENT_8pod_typeERKNS_5ProxyIS9_EEPKNS_11arma_not_cxINS9_9elem_typeEE6resultE"
 "_ZN4arma7op_norm10vec_norm_2INS_5eGlueINS_3ColIdEES4_NS_11eglue_minusEEEEENT_8pod_typeERKNS_5ProxyIS7_EEPKNS_11arma_not_cxINS7_9elem_typeEE6resultE"
 "_ZN4arma7op_norm21vec_norm_2_direct_stdIdEET_RKNS_3MatIS2_EE"
 "_ZN4arma7op_norm24vec_norm_2_direct_robustIdEET_RKNS_3MatIS2_EE"
 "_ZN4arma7subviewIdE10inplace_opINS_15op_internal_equENS_13subview_elem2IdNS_3MatIjEES6_EEEEvRKNS_4BaseIdT0_EEPKc"
 "_ZN4arma7subviewIdE10inplace_opINS_15op_internal_equENS_3eOpINS_3ColIdEENS_16eop_scalar_timesEEEEEvRKNS_4BaseIdT0_EEPKc"
 "_ZN4arma7subviewIdE10inplace_opINS_15op_internal_equENS_3MatIdEEEEvRKNS_4BaseIdT0_EEPKc"
 "_ZN4arma7subviewIdE10inplace_opINS_15op_internal_equENS_4GlueINS_2OpINS_13subview_elem2IdNS_3MatIjEES8_EENS_9op_htransEEENS_11subview_colIdEENS_10glue_timesEEEEEvRKNS_4BaseIdT0_EEPKc"
 "_ZN4arma7subviewIdE10inplace_opINS_15op_internal_equENS_4GlueINS_3MatIdEENS_3ColIdEENS_10glue_timesEEEEEvRKNS_4BaseIdT0_EEPKc"
 "_ZN4arma7subviewIdE10inplace_opINS_15op_internal_equENS_5eGlueINS_11subview_colIdEENS4_INS4_INS_3ColIdEENS_3eOpIS1_NS_7eop_powEEENS_11eglue_schurEEES8_SC_EENS_11eglue_minusEEEEEvRKNS_4BaseIdT0_EEPKc"
 "_ZN4arma7subviewIdE10inplace_opINS_15op_internal_equENS_5eGlueINS_3ColIdEENS_3eOpIS6_NS_16eop_scalar_timesEEENS_10eglue_plusEEEEEvRKNS_4BaseIdT0_EEPKc"
 "_ZN4arma7subviewIdE10inplace_opINS_15op_internal_equENS_5eGlueINS_3ColIdEENS_3eOpIS6_NS_16eop_scalar_timesEEENS_11eglue_minusEEEEEvRKNS_4BaseIdT0_EEPKc"
 "_ZN4arma7subviewIdE10inplace_opINS_15op_internal_equENS_5eGlueINS_3ColIdEENS_4GlueINS_3eOpINS_3MatIdEENS_16eop_scalar_timesEEENS4_IS6_S6_NS_11eglue_schurEEENS_10glue_timesEEENS_10eglue_plusEEEEEvRKNS_4BaseIdT0_EEPKc"
 "_ZN4arma7subviewIdE10inplace_opINS_15op_internal_equENS_5eGlueINS_3ColIdEENS_4GlueINS_3eOpINS_3MatIdEENS_16eop_scalar_timesEEES6_NS_10glue_timesEEENS_10eglue_plusEEEEEvRKNS_4BaseIdT0_EEPKc"
 "_ZN4arma7subviewIdE10inplace_opINS_15op_internal_equENS_5eGlueINS_3ColIdEENS_4GlueINS_3MatIdEENS4_IS6_S6_NS_11eglue_minusEEENS_10glue_timesEEENS_10eglue_plusEEEEEvRKNS_4BaseIdT0_EEPKc"
 "_ZN4arma7subviewIdE10inplace_opINS_15op_internal_equENS_5eGlueINS_3ColIdEENS_4GlueINS_3MatIdEENS7_IS9_NS_6mtGlueIdNS_4mtOpIjNS_13subview_elem1IiNS8_IjEEEENS_9op_rel_eqEEES6_NS_16glue_mixed_minusEEENS_10glue_timesEEESJ_EENS_10eglue_plusEEEEEvRKNS_4BaseIdT0_EEPKc"
 "_ZN4arma7subviewIdE10inplace_opINS_15op_internal_equENS_5eGlueINS_3eOpINS_3ColIdEENS_16eop_scalar_timesEEENS5_INS_2OpIS1_NS_6op_sumEEES8_EENS_10eglue_plusEEEEEvRKNS_4BaseIdT0_EEPKc"
 "_ZN4arma7subviewIdE10inplace_opINS_16op_internal_plusENS_3MatIdEEEEvRKNS_4BaseIdT0_EEPKc"
 "_ZN4arma7subviewIdE7extractERNS_3MatIdEERKS1_"
 "_ZN4arma7subviewIjE7extractERNS_3MatIjEERKS1_"
 "_ZN4arma8arrayops10copy_smallIdEEvPT_PKS2_j"
 "_ZN4arma8arrayops10copy_smallIjEEvPT_PKS2_j"
 "_ZN4arma8arrayops11inplace_setIdEEvPT_S2_j"
 "_ZN4arma8arrayops12inplace_plusIdEEvPT_PKS2_j"
 "_ZN4arma8arrayops16inplace_div_baseIdEEvPT_S2_j"
 "_ZN4arma8arrayops17inplace_plus_baseIdEEvPT_PKS2_j"
 "_ZN4arma8eop_coreINS_16eop_scalar_timesEE18apply_inplace_plusINS_3ColIdEEEEvRNS_3MatINT_9elem_typeEEERKNS_3eOpIS7_S1_EE"
 "_ZN4arma8eop_coreINS_16eop_scalar_timesEE5applyINS_3MatIdEENS_3ColIdEEEEvRT_RKNS_3eOpIT0_S1_EE"
 "_ZN4arma8eop_coreINS_16eop_scalar_timesEE5applyINS_3MatIdEENS_5eGlueINS_3ColIdEENS_3eOpIS8_NS_20eop_scalar_minus_preEEENS_11eglue_schurEEEEEvRT_RKNS9_IT0_S1_EE"
 "_ZN4arma8eop_coreINS_19eop_scalar_div_postEE18apply_inplace_plusINS_5eGlueINS4_INS4_INS4_INS_4GlueINS4_INS_3ColIdEENS5_INS_3MatIdEES7_NS_10glue_timesEEENS_11eglue_minusEEENS_2OpISD_NS_9op_htransEEESA_EES9_NS_10eglue_plusEEENS5_INS5_IS9_S9_SA_EES9_SA_EESC_EENSE_ISL_SF_EESC_EESL_SI_EEEEvRNS8_INT_9elem_typeEEERKNS_3eOpISQ_S1_EE"
 "_ZN4arma8eop_coreINS_19eop_scalar_div_postEE18apply_inplace_plusINS_5eGlueINS4_INS4_INS4_INS_4GlueINS4_INS_3ColIdEENS5_INS_3MatIdEES7_NS_10glue_timesEEENS_11eglue_minusEEENS_2OpISD_NS_9op_htransEEESA_EES9_NS_10eglue_plusEEENS5_IS9_S9_SA_EESC_EENSE_ISK_SF_EESC_EENS5_ISK_S9_SA_EESI_EEEEvRNS8_INT_9elem_typeEEERKNS_3eOpISQ_S1_EE"
 "_ZN4arma8eop_coreINS_19eop_scalar_div_postEE5applyINS_3MatIdEENS_5eGlueIS5_NS_2OpIS5_NS_9op_htransEEENS_10eglue_plusEEEEEvRT_RKNS_3eOpIT0_S1_EE"
 "_ZN4arma9inv_sympdINS_3MatIdEEEENS_10enable_if2IXsrNS_22is_supported_blas_typeINT_9elem_typeEEE5valueEbE6resultERNS1_IS6_EERKNS_4BaseIS6_S5_EE"
 "_ZN4arma9op_rel_eq5applyINS_13subview_elem1IiNS_3MatIjEEEEEEvRS4_RKNS_4mtOpIjT_S0_EE"
 "_ZN4arma9op_strans11apply_proxyINS_4GlueINS_2OpINS_3MatIdEENS_9op_htransEEENS_13subview_elem2IdNS4_IjEES9_EENS_10glue_timesEEEEEvRNS4_INT_9elem_typeEEERKSD_"
 "_ZN4arma9op_strans11apply_proxyINS_4GlueINS_3MatIdEENS2_IS4_S4_NS_10glue_timesEEENS_14glue_solve_genEEEEEvRNS3_INT_9elem_typeEEERKS9_"
 "_ZN4arma9op_strans17apply_mat_inplaceIdEEvRNS_3MatIT_EE"
 "_ZN4arma9op_strans17apply_mat_noaliasIdNS_3ColIdEEEEvRNS_3MatIT_EERKT0_"
 "_ZN4arma9op_strans17apply_mat_noaliasIdNS_3MatIdEEEEvRNS2_IT_EERKT0_"
 "_ZN4arma9op_strans24apply_mat_noalias_tinysqIdNS_3ColIdEEEEvRNS_3MatIT_EERKT0_"
 "_ZN4arma9op_strans24apply_mat_noalias_tinysqIdNS_3MatIdEEEEvRNS2_IT_EERKT0_"
 "_ZN4arma9op_strans9apply_matIdNS_3MatIdEEEEvRNS2_IT_EERKT0_"
 "_ZN4arma9op_symmat5applyINS_3MatIdEEEEvRNS2_INT_9elem_typeEEERKNS_2OpIS4_S0_EE"
 "_ZN4arma9syrk_emulILb1ELb1ELb0EE5applyIdNS_3MatIdEEEEvRNS3_IT_EERKT0_S5_S5_"
 "_ZN4Rcpp10eval_errorD0Ev"
 "_ZN4Rcpp10eval_errorD1Ev"
 "_ZN4Rcpp10RstreambufILb0EE4syncEv"
 "_ZN4Rcpp10RstreambufILb0EE6xsputnEPKcx"
 "_ZN4Rcpp10RstreambufILb0EE8overflowEi"
 "_ZN4Rcpp10RstreambufILb0EED0Ev"
 "_ZN4Rcpp10RstreambufILb0EED1Ev"
 "_ZN4Rcpp10RstreambufILb1EE4syncEv"
 "_ZN4Rcpp10RstreambufILb1EE6xsputnEPKcx"
 "_ZN4Rcpp10RstreambufILb1EE8overflowEi"
 "_ZN4Rcpp10RstreambufILb1EED0Ev"
 "_ZN4Rcpp10RstreambufILb1EED1Ev"
 "_ZN4Rcpp13RcppArmadillo9arma_wrapIN4arma3ColIdEEEEP7SEXPRECRKT_RKNS_9DimensionE"
 "_ZN4Rcpp13RcppArmadillo9arma_wrapIN4arma3MatIdEEEEP7SEXPRECRKT_RKNS_9DimensionE"
 "_ZN4Rcpp13RcppArmadillo9arma_wrapIN4arma4CubeIdEEEEP7SEXPRECRKT_RKNS_9DimensionE"
 "_ZN4Rcpp14not_compatibleC1ERKSs"
 "_ZN4Rcpp14not_compatibleD0Ev"
 "_ZN4Rcpp14not_compatibleD1Ev"
 "_ZN4Rcpp19index_out_of_boundsD0Ev"
 "_ZN4Rcpp19index_out_of_boundsD1Ev"
 "_ZN4Rcpp20AttributeProxyPolicyINS_12RObject_ImplINS_15PreserveStorageEEEE14AttributeProxyaSINS_9DimensionEEERS5_RKT_"
 "_ZN4Rcpp4stopERKSs"
 "_ZN4Rcpp4wrapIdEEP7SEXPRECRKN4arma3MatIT_EE"
 "_ZN4Rcpp4wrapIdEEP7SEXPRECRKN4arma4CubeIT_EE"
 "_ZN4Rcpp4wrapIN4arma3MatIdEENS1_9op_htransEEEP7SEXPRECRKNS1_2OpIT_T0_EE"
 "_ZN4Rcpp6r_castILi13EEEP7SEXPRECS2_"
 "_ZN4Rcpp6r_castILi14EEEP7SEXPRECS2_"
 "_ZN4Rcpp6VectorILi14ENS_15PreserveStorageEE15push_back__implERKdNS_6traits17integral_constantIbLb0EEE"
 "_ZN4Rcpp6VectorILi19ENS_15PreserveStorageEE16create__dispatchINS_6traits12named_objectIP7SEXPRECEES8_S8_S8_S8_NS5_IjEENS5_INS0_ILi14ES1_EEEES8_S8_EES2_NS4_17integral_constantIbLb1EEERKT_RKT0_RKT1_RKT2_RKT3_RKT4_RKT5_RKT6_RKT7_"
 "_ZN4Rcpp8internal10basic_castILi10EEEP7SEXPRECS3_"
 "_ZN4Rcpp8internal10basic_castILi13EEEP7SEXPRECS3_"
 "_ZN4Rcpp8internal10basic_castILi14EEEP7SEXPRECS3_"
 "_ZN4Rcpp8internal12primitive_asIbEET_P7SEXPREC"
 "_ZN4Rcpp8internal12primitive_asIdEET_P7SEXPREC"
 "_ZN4Rcpp8internal12primitive_asIiEET_P7SEXPREC"
 "_ZN4Rcpp8internal13r_init_vectorILi14EEEvP7SEXPREC"
 "_ZN4Rcpp8internal18export_range__implIN9__gnu_cxx17__normal_iteratorIPdSt6vectorIdSaIdEEEEdEEvP7SEXPRECT_NS_6traits17integral_constantIbLb0EEE"
 "_ZN4Rcpp8internal21export_indexing__implIN4arma3ColIiEEiEEvP7SEXPRECRT_NS_6traits17integral_constantIbLb0EEE"
 "_ZN4Rcpp8internal21export_indexing__implIN4arma3ColIjEEjEEvP7SEXPRECRT_NS_6traits17integral_constantIbLb1EEE"
 "_ZN4Rcpp8internal34primitive_range_wrap__impl__nocastIPKddEEP7SEXPRECT_S6_St26random_access_iterator_tag"
 "_ZN4Rcpp8RostreamILb0EED0Ev"
 "_ZN4Rcpp8RostreamILb0EED1Ev"
 "_ZN4Rcpp8RostreamILb1EED0Ev"
 "_ZN4Rcpp8RostreamILb1EED1Ev"
 "_ZN4Rcpp9exceptionC1EPKc"
 "_ZN4Rcpp9exceptionD0Ev"
 "_ZN4Rcpp9exceptionD1Ev"
 "_ZN4Rcpp9Rcpp_evalEP7SEXPRECS1_"
 "_ZN6qr_objC1Ej"
 "_ZN9__gnu_cxx12__to_xstringISscEET_PFiPT0_yPKS2_PcEyS5_z"
 "_ZNK4arma19subview_each_commonINS_3MatIdEELj0EE20incompat_size_stringERKS2_"
 "_ZNK4arma19subview_each_commonINS_3MatIdEELj1EE20incompat_size_stringERKS2_"
 "_ZNK4arma19subview_each_commonINS_7subviewIdEELj1EE20incompat_size_stringERKNS_3MatIdEE"
 "_ZNK4Rcpp10eval_error4whatEv"
 "_ZNK4Rcpp14not_compatible4whatEv"
 "_ZNK4Rcpp19index_out_of_bounds4whatEv"
 "_ZNK4Rcpp8internal18generic_name_proxyILi19EE3getEv"
 "_ZNK4Rcpp9exception4whatEv"
 "_ZNKSt13__future_base13_State_baseV215_M_has_deferredEv"
 "_ZNKSt5ctypeIcE8do_widenEc"
 "_ZNSt12_Destroy_auxILb0EE9__destroyIP16function_wrapperEEvT_S4_"
 "_ZNSt13__future_base11_Task_stateIZN10EKF_helper20parallel_filter_stepEPKjS3_RKN4arma3ColIdEERKbRKiRKdSE_EUlvE_SaIiEFvvEE6_M_runEv"
 "_ZNSt13__future_base11_Task_stateIZN10EKF_helper20parallel_filter_stepEPKjS3_RKN4arma3ColIdEERKbRKiRKdSE_EUlvE_SaIiEFvvEE8_M_resetEv"
 "_ZNSt13__future_base11_Task_stateIZN10EKF_helper20parallel_filter_stepEPKjS3_RKN4arma3ColIdEERKbRKiRKdSE_EUlvE_SaIiEFvvEED0Ev"
 "_ZNSt13__future_base11_Task_stateIZN10EKF_helper20parallel_filter_stepEPKjS3_RKN4arma3ColIdEERKbRKiRKdSE_EUlvE_SaIiEFvvEED1Ev"
 "_ZNSt13__future_base13_State_baseV217_M_complete_asyncEv"
 "_ZNSt13__future_base13_State_baseV29_M_do_setERSt8functionIFSt10unique_ptrINS_12_Result_baseENS3_8_DeleterEEvEERb"
 "_ZNSt13__future_base13_State_baseV2D0Ev"
 "_ZNSt13__future_base13_State_baseV2D1Ev"
 "_ZNSt13__future_base13_State_baseV2D2Ev"
 "_ZNSt13__future_base7_ResultIvE10_M_destroyEv"
 "_ZNSt13__future_base7_ResultIvED0Ev"
 "_ZNSt13__future_base7_ResultIvED1Ev"
 "_ZNSt13packaged_taskIFvvEED1Ev"
 "_ZNSt14__basic_futureIvE6_ResetD1Ev"
 "_ZNSt14_Function_base12_Ref_managerISt12_Bind_simpleIFSt17reference_wrapperIZN10EKF_helper20parallel_filter_stepEPKjS5_RKN4arma3ColIdEERKbRKiRKdSG_EUlvE_EvEEE10_M_managerERSt9_Any_dataRKSM_St18_Manager_operation"
 "_ZNSt14_Function_base13_Base_managerINSt13__future_base12_Task_setterISt10unique_ptrINS1_7_ResultIvEENS1_12_Result_base8_DeleterEEvEEE10_M_managerERSt9_Any_dataRKSB_St18_Manager_operation"
 "_ZNSt15_Sp_counted_ptrIPN10EKF_helper19filter_worker_logitELN9__gnu_cxx12_Lock_policyE2EE10_M_destroyEv"
 "_ZNSt15_Sp_counted_ptrIPN10EKF_helper19filter_worker_logitELN9__gnu_cxx12_Lock_policyE2EE10_M_disposeEv"
 "_ZNSt15_Sp_counted_ptrIPN10EKF_helper19filter_worker_logitELN9__gnu_cxx12_Lock_policyE2EE14_M_get_deleterERKSt9type_info"
 "_ZNSt15_Sp_counted_ptrIPN10EKF_helper19filter_worker_logitELN9__gnu_cxx12_Lock_policyE2EED0Ev"
 "_ZNSt15_Sp_counted_ptrIPN10EKF_helper19filter_worker_logitELN9__gnu_cxx12_Lock_policyE2EED1Ev"
 "_ZNSt15_Sp_counted_ptrIPN10EKF_helper25filter_worker_exponentialELN9__gnu_cxx12_Lock_policyE2EE10_M_destroyEv"
 "_ZNSt15_Sp_counted_ptrIPN10EKF_helper25filter_worker_exponentialELN9__gnu_cxx12_Lock_policyE2EE10_M_disposeEv"
 "_ZNSt15_Sp_counted_ptrIPN10EKF_helper25filter_worker_exponentialELN9__gnu_cxx12_Lock_policyE2EE14_M_get_deleterERKSt9type_info"
 "_ZNSt15_Sp_counted_ptrIPN10EKF_helper25filter_worker_exponentialELN9__gnu_cxx12_Lock_policyE2EED0Ev"
 "_ZNSt15_Sp_counted_ptrIPN10EKF_helper25filter_worker_exponentialELN9__gnu_cxx12_Lock_policyE2EED1Ev"
 "_ZNSt16_Sp_counted_baseILN9__gnu_cxx12_Lock_policyE2EE10_M_destroyEv"
 "_ZNSt16_Sp_counted_baseILN9__gnu_cxx12_Lock_policyE2EE10_M_releaseEv"
 "_ZNSt17_Function_handlerIFSt10unique_ptrINSt13__future_base12_Result_baseENS2_8_DeleterEEvENS1_12_Task_setterIS0_INS1_7_ResultIvEES3_EvEEE9_M_invokeERKSt9_Any_data"
 "_ZNSt17_Function_handlerIFvvESt17reference_wrapperISt12_Bind_simpleIFS1_IZN10EKF_helper20parallel_filter_stepEPKjS5_RKN4arma3ColIdEERKbRKiRKdSG_EUlvE_EvEEEE9_M_invokeERKSt9_Any_data"
 "_ZNSt23_Sp_counted_ptr_inplaceI16function_wrapperSaIS0_ELN9__gnu_cxx12_Lock_policyE2EE10_M_destroyEv"
 "_ZNSt23_Sp_counted_ptr_inplaceI16function_wrapperSaIS0_ELN9__gnu_cxx12_Lock_policyE2EE10_M_disposeEv"
 "_ZNSt23_Sp_counted_ptr_inplaceI16function_wrapperSaIS0_ELN9__gnu_cxx12_Lock_policyE2EE14_M_get_deleterERKSt9type_info"
 "_ZNSt23_Sp_counted_ptr_inplaceI16function_wrapperSaIS0_ELN9__gnu_cxx12_Lock_policyE2EED0Ev"
 "_ZNSt23_Sp_counted_ptr_inplaceI16function_wrapperSaIS0_ELN9__gnu_cxx12_Lock_policyE2EED1Ev"
 "_ZNSt23_Sp_counted_ptr_inplaceINSt13__future_base11_Task_stateIZN10EKF_helper20parallel_filter_stepEPKjS4_RKN4arma3ColIdEERKbRKiRKdSF_EUlvE_SaIiEFvvEEESH_LN9__gnu_cxx12_Lock_policyE2EE10_M_destroyEv"
 "_ZNSt23_Sp_counted_ptr_inplaceINSt13__future_base11_Task_stateIZN10EKF_helper20parallel_filter_stepEPKjS4_RKN4arma3ColIdEERKbRKiRKdSF_EUlvE_SaIiEFvvEEESH_LN9__gnu_cxx12_Lock_policyE2EE10_M_disposeEv"
 "_ZNSt23_Sp_counted_ptr_inplaceINSt13__future_base11_Task_stateIZN10EKF_helper20parallel_filter_stepEPKjS4_RKN4arma3ColIdEERKbRKiRKdSF_EUlvE_SaIiEFvvEEESH_LN9__gnu_cxx12_Lock_policyE2EE14_M_get_deleterERKSt9type_info"
 "_ZNSt23_Sp_counted_ptr_inplaceINSt13__future_base11_Task_stateIZN10EKF_helper20parallel_filter_stepEPKjS4_RKN4arma3ColIdEERKbRKiRKdSF_EUlvE_SaIiEFvvEEESH_LN9__gnu_cxx12_Lock_policyE2EED0Ev"
 "_ZNSt23_Sp_counted_ptr_inplaceINSt13__future_base11_Task_stateIZN10EKF_helper20parallel_filter_stepEPKjS4_RKN4arma3ColIdEERKbRKiRKdSF_EUlvE_SaIiEFvvEEESH_LN9__gnu_cxx12_Lock_policyE2EED1Ev"
 "_ZNSt23_Sp_counted_ptr_inplaceINSt6thread5_ImplISt12_Bind_simpleIFSt7_Mem_fnIM11thread_poolFvjEEPS4_jEEEESaISB_ELN9__gnu_cxx12_Lock_policyE2EE10_M_destroyEv"
 "_ZNSt23_Sp_counted_ptr_inplaceINSt6thread5_ImplISt12_Bind_simpleIFSt7_Mem_fnIM11thread_poolFvjEEPS4_jEEEESaISB_ELN9__gnu_cxx12_Lock_policyE2EE10_M_disposeEv"
 "_ZNSt23_Sp_counted_ptr_inplaceINSt6thread5_ImplISt12_Bind_simpleIFSt7_Mem_fnIM11thread_poolFvjEEPS4_jEEEESaISB_ELN9__gnu_cxx12_Lock_policyE2EE14_M_get_deleterERKSt9type_info"
 "_ZNSt23_Sp_counted_ptr_inplaceINSt6thread5_ImplISt12_Bind_simpleIFSt7_Mem_fnIM11thread_poolFvjEEPS4_jEEEESaISB_ELN9__gnu_cxx12_Lock_policyE2EED0Ev"
 "_ZNSt23_Sp_counted_ptr_inplaceINSt6thread5_ImplISt12_Bind_simpleIFSt7_Mem_fnIM11thread_poolFvjEEPS4_jEEEESaISB_ELN9__gnu_cxx12_Lock_policyE2EED1Ev"
 "_ZNSt6thread5_ImplISt12_Bind_simpleIFSt7_Mem_fnIM11thread_poolFvjEEPS3_jEEE6_M_runEv"
 "_ZNSt6thread5_ImplISt12_Bind_simpleIFSt7_Mem_fnIM11thread_poolFvjEEPS3_jEEED0Ev"
 "_ZNSt6thread5_ImplISt12_Bind_simpleIFSt7_Mem_fnIM11thread_poolFvjEEPS3_jEEED1Ev"
 "_ZNSt6vectorISt10shared_ptrIN10EKF_helper13filter_workerEESaIS3_EE12emplace_backIIS3_EEEvDpOT_"
 "_ZNSt6vectorISt10shared_ptrIN10EKF_helper13filter_workerEESaIS3_EE19_M_emplace_back_auxIIS3_EEEvDpOT_"
 "_ZNSt6vectorISt10shared_ptrIN10EKF_helper13filter_workerEESaIS3_EED1Ev"
 "_ZNSt6vectorISt10unique_ptrI19work_stealing_queueSt14default_deleteIS1_EESaIS4_EE19_M_emplace_back_auxIIS4_EEEvDpOT_"
 "_ZNSt6vectorISt10unique_ptrI19work_stealing_queueSt14default_deleteIS1_EESaIS4_EED1Ev"
 "_ZNSt6vectorISt6futureIvESaIS1_EED1Ev"
 "_ZNSt6vectorISt6threadSaIS0_EE19_M_emplace_back_auxIIS0_EEEvDpOT_"
 "_ZSt16__once_call_implISt12_Bind_simpleIFSt7_Mem_fnIMNSt13__future_base13_State_baseV2EFvRSt8functionIFSt10unique_ptrINS2_12_Result_baseENS6_8_DeleterEEvEERbEEPS3_St17reference_wrapperISA_ESH_IbEEEEvv"
 "_ZSt18make_exception_ptrISt12future_errorENSt15__exception_ptr13exception_ptrET_"
 "_ZStplIcSt11char_traitsIcESaIcEESbIT_T0_T1_EOS6_PKS3_"
 "_ZStplIcSt11char_traitsIcESaIcEESbIT_T0_T1_EPKS3_OS6_"
 "_ZStplIcSt11char_traitsIcESaIcEESbIT_T0_T1_EPKS3_RKS6_"
 "_ZTCN4Rcpp8RostreamILb0EEE0_So"
 "_ZTCN4Rcpp8RostreamILb1EEE0_So"
 "_ZTI10EKF_solver"
 "_ZTI14UKF_solver_New"
 "_ZTI14UKF_solver_Org"
 "_ZTI20UKF_solver_New_logit"
 "_ZTI26UKF_solver_New_exponential"
 "_ZTI6Solver"
 "_ZTIN10__cxxabiv115__forced_unwindE"
 "_ZTIN10EKF_helper13filter_workerE"
 "_ZTIN10EKF_helper19filter_worker_logitE"
 "_ZTIN10EKF_helper25filter_worker_exponentialE"
 "_ZTIN16function_wrapper9impl_baseE"
 "_ZTIN16function_wrapper9impl_typeISt13packaged_taskIFvvEEEE"
 "_ZTIN4Rcpp10eval_errorE"
 "_ZTIN4Rcpp10RstreambufILb0EEE"
 "_ZTIN4Rcpp10RstreambufILb1EEE"
 "_ZTIN4Rcpp14not_compatibleE"
 "_ZTIN4Rcpp19index_out_of_boundsE"
 "_ZTIN4Rcpp8internal20InterruptedExceptionE"
 "_ZTIN4Rcpp8RostreamILb0EEE"
 "_ZTIN4Rcpp8RostreamILb1EEE"
 "_ZTIN4Rcpp9exceptionE"
 "_ZTINSt13__future_base11_Task_stateIZN10EKF_helper20parallel_filter_stepEPKjS3_RKN4arma3ColIdEERKbRKiRKdSE_EUlvE_SaIiEFvvEEE"
 "_ZTINSt13__future_base12_Result_baseE"
 "_ZTINSt13__future_base12_Task_setterISt10unique_ptrINS_7_ResultIvEENS_12_Result_base8_DeleterEEvEE"
 "_ZTINSt13__future_base13_State_baseV2E"
 "_ZTINSt13__future_base16_Task_state_baseIFvvEEE"
 "_ZTINSt13__future_base7_ResultIvEE"
 "_ZTINSt6thread10_Impl_baseE"
 "_ZTINSt6thread5_ImplISt12_Bind_simpleIFSt7_Mem_fnIM11thread_poolFvjEEPS3_jEEEE"
 "_ZTIPSt12_Bind_simpleIFSt17reference_wrapperIZN10EKF_helper20parallel_filter_stepEPKjS3_RKN4arma3ColIdEERKbRKiRKdSE_EUlvE_EvEE"
 "_ZTISt11_Mutex_baseILN9__gnu_cxx12_Lock_policyE2EE"
 "_ZTISt11logic_error"
 "_ZTISt12_Bind_simpleIFSt17reference_wrapperIZN10EKF_helper20parallel_filter_stepEPKjS3_RKN4arma3ColIdEERKbRKiRKdSE_EUlvE_EvEE"
 "_ZTISt12future_error"
 "_ZTISt13runtime_error"
 "_ZTISt15_Sp_counted_ptrIPN10EKF_helper19filter_worker_logitELN9__gnu_cxx12_Lock_policyE2EE"
 "_ZTISt15_Sp_counted_ptrIPN10EKF_helper25filter_worker_exponentialELN9__gnu_cxx12_Lock_policyE2EE"
 "_ZTISt16_Sp_counted_baseILN9__gnu_cxx12_Lock_policyE2EE"
 "_ZTISt19_Sp_make_shared_tag"
 "_ZTISt23_Sp_counted_ptr_inplaceI16function_wrapperSaIS0_ELN9__gnu_cxx12_Lock_policyE2EE"
 "_ZTISt23_Sp_counted_ptr_inplaceINSt13__future_base11_Task_stateIZN10EKF_helper20parallel_filter_stepEPKjS4_RKN4arma3ColIdEERKbRKiRKdSF_EUlvE_SaIiEFvvEEESH_LN9__gnu_cxx12_Lock_policyE2EE"
 "_ZTISt23_Sp_counted_ptr_inplaceINSt6thread5_ImplISt12_Bind_simpleIFSt7_Mem_fnIM11thread_poolFvjEEPS4_jEEEESaISB_ELN9__gnu_cxx12_Lock_policyE2EE"
 "_ZTISt9bad_alloc"
 "_ZTISt9exception"
 "_ZTS10EKF_solver"
 "_ZTS14UKF_solver_New"
 "_ZTS14UKF_solver_Org"
 "_ZTS20UKF_solver_New_logit"
 "_ZTS26UKF_solver_New_exponential"
 "_ZTS6Solver"
 "_ZTSN10__cxxabiv115__forced_unwindE"
 "_ZTSN10EKF_helper13filter_workerE"
 "_ZTSN10EKF_helper19filter_worker_logitE"
 "_ZTSN10EKF_helper25filter_worker_exponentialE"
 "_ZTSN16function_wrapper9impl_baseE"
 "_ZTSN16function_wrapper9impl_typeISt13packaged_taskIFvvEEEE"
 "_ZTSN4Rcpp10eval_errorE"
 "_ZTSN4Rcpp10RstreambufILb0EEE"
 "_ZTSN4Rcpp10RstreambufILb1EEE"
 "_ZTSN4Rcpp14not_compatibleE"
 "_ZTSN4Rcpp19index_out_of_boundsE"
 "_ZTSN4Rcpp8internal20InterruptedExceptionE"
 "_ZTSN4Rcpp8RostreamILb0EEE"
 "_ZTSN4Rcpp8RostreamILb1EEE"
 "_ZTSN4Rcpp9exceptionE"
 "_ZTSNSt13__future_base11_Task_stateIZN10EKF_helper20parallel_filter_stepEPKjS3_RKN4arma3ColIdEERKbRKiRKdSE_EUlvE_SaIiEFvvEEE"
 "_ZTSNSt13__future_base12_Result_baseE"
 "_ZTSNSt13__future_base12_Task_setterISt10unique_ptrINS_7_ResultIvEENS_12_Result_base8_DeleterEEvEE"
 "_ZTSNSt13__future_base13_State_baseV2E"
 "_ZTSNSt13__future_base16_Task_state_baseIFvvEEE"
 "_ZTSNSt13__future_base7_ResultIvEE"
 "_ZTSNSt6thread10_Impl_baseE"
 "_ZTSNSt6thread5_ImplISt12_Bind_simpleIFSt7_Mem_fnIM11thread_poolFvjEEPS3_jEEEE"
 "_ZTSPSt12_Bind_simpleIFSt17reference_wrapperIZN10EKF_helper20parallel_filter_stepEPKjS3_RKN4arma3ColIdEERKbRKiRKdSE_EUlvE_EvEE"
 "_ZTSSt11_Mutex_baseILN9__gnu_cxx12_Lock_policyE2EE"
 "_ZTSSt11logic_error"
 "_ZTSSt12_Bind_simpleIFSt17reference_wrapperIZN10EKF_helper20parallel_filter_stepEPKjS3_RKN4arma3ColIdEERKbRKiRKdSE_EUlvE_EvEE"
 "_ZTSSt12future_error"
 "_ZTSSt13runtime_error"
 "_ZTSSt15_Sp_counted_ptrIPN10EKF_helper19filter_worker_logitELN9__gnu_cxx12_Lock_policyE2EE"
 "_ZTSSt15_Sp_counted_ptrIPN10EKF_helper25filter_worker_exponentialELN9__gnu_cxx12_Lock_policyE2EE"
 "_ZTSSt16_Sp_counted_baseILN9__gnu_cxx12_Lock_policyE2EE"
 "_ZTSSt19_Sp_make_shared_tag"
 "_ZTSSt23_Sp_counted_ptr_inplaceI16function_wrapperSaIS0_ELN9__gnu_cxx12_Lock_policyE2EE"
 "_ZTSSt23_Sp_counted_ptr_inplaceINSt13__future_base11_Task_stateIZN10EKF_helper20parallel_filter_stepEPKjS4_RKN4arma3ColIdEERKbRKiRKdSF_EUlvE_SaIiEFvvEEESH_LN9__gnu_cxx12_Lock_policyE2EE"
 "_ZTSSt23_Sp_counted_ptr_inplaceINSt6thread5_ImplISt12_Bind_simpleIFSt7_Mem_fnIM11thread_poolFvjEEPS4_jEEEESaISB_ELN9__gnu_cxx12_Lock_policyE2EE"
 "_ZTSSt9bad_alloc"
 "_ZTSSt9exception"
 "_ZTTN4Rcpp8RostreamILb0EEE"
 "_ZTTN4Rcpp8RostreamILb1EEE"
 "_ZTv0_n24_N4Rcpp8RostreamILb0EED0Ev"
 "_ZTv0_n24_N4Rcpp8RostreamILb0EED1Ev"
 "_ZTv0_n24_N4Rcpp8RostreamILb1EED0Ev"
 "_ZTv0_n24_N4Rcpp8RostreamILb1EED1Ev"
 "_ZTV10EKF_solver"
 "_ZTV14UKF_solver_New"
 "_ZTV14UKF_solver_Org"
 "_ZTV20UKF_solver_New_logit"
 "_ZTV26UKF_solver_New_exponential"
 "_ZTVN10EKF_helper13filter_workerE"
 "_ZTVN10EKF_helper19filter_worker_logitE"
 "_ZTVN10EKF_helper25filter_worker_exponentialE"
 "_ZTVN16function_wrapper9impl_typeISt13packaged_taskIFvvEEEE"
 "_ZTVN4Rcpp10eval_errorE"
 "_ZTVN4Rcpp10RstreambufILb0EEE"
 "_ZTVN4Rcpp10RstreambufILb1EEE"
 "_ZTVN4Rcpp14not_compatibleE"
 "_ZTVN4Rcpp19index_out_of_boundsE"
 "_ZTVN4Rcpp8RostreamILb0EEE"
 "_ZTVN4Rcpp8RostreamILb1EEE"
 "_ZTVN4Rcpp9exceptionE"
 "_ZTVNSt13__future_base11_Task_stateIZN10EKF_helper20parallel_filter_stepEPKjS3_RKN4arma3ColIdEERKbRKiRKdSE_EUlvE_SaIiEFvvEEE"
 "_ZTVNSt13__future_base13_State_baseV2E"
 "_ZTVNSt13__future_base16_Task_state_baseIFvvEEE"
 "_ZTVNSt13__future_base7_ResultIvEE"
 "_ZTVNSt6thread10_Impl_baseE"
 "_ZTVNSt6thread5_ImplISt12_Bind_simpleIFSt7_Mem_fnIM11thread_poolFvjEEPS3_jEEEE"
 "_ZTVSt15_Sp_counted_ptrIPN10EKF_helper19filter_worker_logitELN9__gnu_cxx12_Lock_policyE2EE"
 "_ZTVSt15_Sp_counted_ptrIPN10EKF_helper25filter_worker_exponentialELN9__gnu_cxx12_Lock_policyE2EE"
 "_ZTVSt23_Sp_counted_ptr_inplaceI16function_wrapperSaIS0_ELN9__gnu_cxx12_Lock_policyE2EE"
 "_ZTVSt23_Sp_counted_ptr_inplaceINSt13__future_base11_Task_stateIZN10EKF_helper20parallel_filter_stepEPKjS4_RKN4arma3ColIdEERKbRKiRKdSF_EUlvE_SaIiEFvvEEESH_LN9__gnu_cxx12_Lock_policyE2EE"
 "_ZTVSt23_Sp_counted_ptr_inplaceINSt6thread5_ImplISt12_Bind_simpleIFSt7_Mem_fnIM11thread_poolFvjEEPS4_jEEEESaISB_ELN9__gnu_cxx12_Lock_policyE2EE"
 "_ZZ22estimate_fixed_effectsI11poisson_famEvP12problem_dataiR15bigglm_updateQRIT_EE23failed_to_converge_once"
 "_ZZ22estimate_fixed_effectsI9logit_famEvP12problem_dataiR15bigglm_updateQRIT_EE23failed_to_converge_once"
 "_ZZ7dataptrP7SEXPRECE3fun"
 "_ZZN10EKF_solver5solveEvE27inv_V_t_t_s_inv_have_failed"
 "_ZZN10EKF_solver5solveEvE30inv_V_t_less_s_inv_have_failed"
 "_ZZN26UKF_solver_New_exponential21Compute_intermediatesERKN4arma3ColIjEENS1_IdEEiddRS5_RNS0_3MatIdEEE14have_seen_up_v"
 "_ZZN26UKF_solver_New_exponential21Compute_intermediatesERKN4arma3ColIjEENS1_IdEEiddRS5_RNS0_3MatIdEEE15have_seen_low_v"
 "conv_criteria"
 "_ZN4Rcpp10RstreambufILb0EE4syncEv"
 "_ZN4Rcpp10RstreambufILb0EE6xsputnEPKcx"
 "_ZN4Rcpp10RstreambufILb0EE8overflowEi"
 "_ZN4Rcpp10RstreambufILb0EED0Ev"
 "_ZN4Rcpp10RstreambufILb0EED1Ev"
 "_ZN4Rcpp10RstreambufILb1EE4syncEv"
 "_ZN4Rcpp10RstreambufILb1EE6xsputnEPKcx"
 "_ZN4Rcpp10RstreambufILb1EE8overflowEi"
 "_ZN4Rcpp10RstreambufILb1EED0Ev"
 "_ZN4Rcpp10RstreambufILb1EED1Ev"
 "_ZN4Rcpp8RostreamILb0EED0Ev"
 "_ZN4Rcpp8RostreamILb0EED1Ev"
 "_ZN4Rcpp8RostreamILb1EED0Ev"
 "_ZN4Rcpp8RostreamILb1EED1Ev"
 "_ZNK11poisson_fam10d_mu_d_etaERKd"
 "_ZNK11poisson_fam10dev_residsERKdS1_S1_"
 "_ZNK11poisson_fam11time_offsetERKd"
 "_ZNK11poisson_fam13link_func_invERKd"
 "_ZNK11poisson_fam8varianceERKd"
 "_ZNK11poisson_fam9link_funcERKd"
 "_ZNK9logit_fam10d_mu_d_etaERKd"
 "_ZNK9logit_fam10dev_residsERKdS1_S1_"
 "_ZNK9logit_fam11time_offsetERKd"
 "_ZNK9logit_fam13link_func_invERKd"
 "_ZNK9logit_fam8varianceERKd"
 "_ZNK9logit_fam9link_funcERKd"
 "_ZTCN4Rcpp8RostreamILb0EEE0_So"
 "_ZTCN4Rcpp8RostreamILb1EEE0_So"
 "_ZTI11dist_family"
 "_ZTI11poisson_fam"
 "_ZTI9logit_fam"
 "_ZTIN4Rcpp10RstreambufILb0EEE"
 "_ZTIN4Rcpp10RstreambufILb1EEE"
 "_ZTIN4Rcpp8RostreamILb0EEE"
 "_ZTIN4Rcpp8RostreamILb1EEE"
 "_ZTS11dist_family"
 "_ZTS11poisson_fam"
 "_ZTS9logit_fam"
 "_ZTSN4Rcpp10RstreambufILb0EEE"
 "_ZTSN4Rcpp10RstreambufILb1EEE"
 "_ZTSN4Rcpp8RostreamILb0EEE"
 "_ZTSN4Rcpp8RostreamILb1EEE"
 "_ZTTN4Rcpp8RostreamILb0EEE"
 "_ZTTN4Rcpp8RostreamILb1EEE"
 "_ZTv0_n24_N4Rcpp8RostreamILb0EED0Ev"
 "_ZTv0_n24_N4Rcpp8RostreamILb0EED1Ev"
 "_ZTv0_n24_N4Rcpp8RostreamILb1EED0Ev"
 "_ZTv0_n24_N4Rcpp8RostreamILb1EED1Ev"
 "_ZTV11poisson_fam"
 "_ZTV9logit_fam"
 "_ZTVN4Rcpp10RstreambufILb0EEE"
 "_ZTVN4Rcpp10RstreambufILb1EEE"
 "_ZTVN4Rcpp8RostreamILb0EEE"
 "_ZTVN4Rcpp8RostreamILb1EEE"
 "_Z11logLike_cppRKN4arma3MatIdEERKN4Rcpp6VectorILi19ENS4_15PreserveStorageEEES3_S3_S1_S3_RKNS_3ColIdEESD_SD_iSs"
 "_Z7dataptrP7SEXPREC"
 "_ZGVN4arma5DatumIdE3nanE"
 "_ZGVZ7dataptrP7SEXPRECE3fun"
 "_ZN30logLike_link_term_helper_logit18link_term_if_deathERKdS1_"
 "_ZN30logLike_link_term_helper_logit20link_term_if_controlERKdS1_"
 "_ZN32logLike_link_term_helper_cloglog18link_term_if_deathERKdS1_"
 "_ZN32logLike_link_term_helper_cloglog20link_term_if_controlERKdS1_"
 "_ZN4arma10eglue_coreINS_11eglue_minusEE5applyINS_3MatIdEENS_11subview_colIdEENS_4GlueINS_7subviewIdEES7_NS_10glue_timesEEEEEvRT_RKNS_5eGlueIT0_T1_S1_EE"
 "_ZN4arma10glue_times5applyIdLb0ELb0ELb0ENS_3MatIdEENS_3ColIdEEEEvRNS2_IT_EERKT3_RKT4_S6_"
 "_ZN4arma16gemv_emul_tinysqILb1ELb0ELb0EE5applyIdNS_3ColIdEEEEvPT_RKT0_PKS5_S5_S5_"
 "_ZN4arma3invINS_3MatIdEEEENS_10enable_if2IXsrNS_22is_supported_blas_typeINT_9elem_typeEEE5valueEbE6resultERNS1_IS6_EERKNS_4BaseIS6_S5_EE"
 "_ZN4arma3MatIdE5resetEv"
 "_ZN4arma3MatIdE9init_warmEjj"
 "_ZN4arma3MatIdE9steal_memERS1_"
 "_ZN4arma3MatIdEaSERKNS_7subviewIdEE"
 "_ZN4arma3MatIdED1Ev"
 "_ZN4arma3MatIdED2Ev"
 "_ZN4arma3MatIiED2Ev"
 "_ZN4arma3MatIjED2Ev"
 "_ZN4arma5DatumIdE3nanE"
 "_ZN4arma6auxlib10det_lapackIdEET_RKNS_3MatIS2_EEb"
 "_ZN4arma6auxlib19inv_noalias_tinymatIdEEbRNS_3MatIT_EERKS4_j"
 "_ZN4arma6auxlib3detIdNS_3MatIdEEEET_RKNS_4BaseIS4_T0_EE"
 "_ZN4arma8arrayops10copy_smallIdEEvPT_PKS2_j"
 "_ZN4arma9op_symmat5applyINS_3MatIdEEEEvRNS2_INT_9elem_typeEEERKNS_2OpIS4_S0_EE"
 "_ZN4Rcpp10eval_errorD0Ev"
 "_ZN4Rcpp10eval_errorD1Ev"
 "_ZN4Rcpp10RstreambufILb0EE4syncEv"
 "_ZN4Rcpp10RstreambufILb0EE6xsputnEPKcx"
 "_ZN4Rcpp10RstreambufILb0EE8overflowEi"
 "_ZN4Rcpp10RstreambufILb0EED0Ev"
 "_ZN4Rcpp10RstreambufILb0EED1Ev"
 "_ZN4Rcpp10RstreambufILb1EE4syncEv"
 "_ZN4Rcpp10RstreambufILb1EE6xsputnEPKcx"
 "_ZN4Rcpp10RstreambufILb1EE8overflowEi"
 "_ZN4Rcpp10RstreambufILb1EED0Ev"
 "_ZN4Rcpp10RstreambufILb1EED1Ev"
 "_ZN4Rcpp14not_compatibleC1ERKSs"
 "_ZN4Rcpp14not_compatibleD0Ev"
 "_ZN4Rcpp14not_compatibleD1Ev"
 "_ZN4Rcpp19index_out_of_boundsD0Ev"
 "_ZN4Rcpp19index_out_of_boundsD1Ev"
 "_ZN4Rcpp4stopERKSs"
 "_ZN4Rcpp6r_castILi13EEEP7SEXPRECS2_"
 "_ZN4Rcpp6r_castILi14EEEP7SEXPRECS2_"
 "_ZN4Rcpp8internal10basic_castILi13EEEP7SEXPRECS3_"
 "_ZN4Rcpp8internal10basic_castILi14EEEP7SEXPRECS3_"
 "_ZN4Rcpp8internal12primitive_asIdEET_P7SEXPREC"
 "_ZN4Rcpp8internal12primitive_asIiEET_P7SEXPREC"
 "_ZN4Rcpp8internal18export_range__implIN9__gnu_cxx17__normal_iteratorIPdSt6vectorIdSaIdEEEEdEEvP7SEXPRECT_NS_6traits17integral_constantIbLb0EEE"
 "_ZN4Rcpp8internal21export_indexing__implIN4arma3ColIiEEiEEvP7SEXPRECRT_NS_6traits17integral_constantIbLb0EEE"
 "_ZN4Rcpp8internal21export_indexing__implIN4arma3ColIjEEjEEvP7SEXPRECRT_NS_6traits17integral_constantIbLb1EEE"
 "_ZN4Rcpp8RostreamILb0EED0Ev"
 "_ZN4Rcpp8RostreamILb0EED1Ev"
 "_ZN4Rcpp8RostreamILb1EED0Ev"
 "_ZN4Rcpp8RostreamILb1EED1Ev"
 "_ZN4Rcpp9exceptionD0Ev"
 "_ZN4Rcpp9exceptionD1Ev"
 "_ZNK4Rcpp10eval_error4whatEv"
 "_ZNK4Rcpp14not_compatible4whatEv"
 "_ZNK4Rcpp19index_out_of_bounds4whatEv"
 "_ZNK4Rcpp9exception4whatEv"
 "_ZStplIcSt11char_traitsIcESaIcEESbIT_T0_T1_EOS6_PKS3_"
 "_ZStplIcSt11char_traitsIcESaIcEESbIT_T0_T1_EPKS3_RKS6_"
 "_ZTCN4Rcpp8RostreamILb0EEE0_So"
 "_ZTCN4Rcpp8RostreamILb1EEE0_So"
 "_ZTI24logLike_link_term_helper"
 "_ZTI30logLike_link_term_helper_logit"
 "_ZTI32logLike_link_term_helper_cloglog"
 "_ZTIN4Rcpp10eval_errorE"
 "_ZTIN4Rcpp10RstreambufILb0EEE"
 "_ZTIN4Rcpp10RstreambufILb1EEE"
 "_ZTIN4Rcpp14not_compatibleE"
 "_ZTIN4Rcpp19index_out_of_boundsE"
 "_ZTIN4Rcpp8internal20InterruptedExceptionE"
 "_ZTIN4Rcpp8RostreamILb0EEE"
 "_ZTIN4Rcpp8RostreamILb1EEE"
 "_ZTIN4Rcpp9exceptionE"
 "_ZTISt11logic_error"
 "_ZTISt13runtime_error"
 "_ZTISt9bad_alloc"
 "_ZTISt9exception"
 "_ZTS24logLike_link_term_helper"
 "_ZTS30logLike_link_term_helper_logit"
 "_ZTS32logLike_link_term_helper_cloglog"
 "_ZTSN4Rcpp10eval_errorE"
 "_ZTSN4Rcpp10RstreambufILb0EEE"
 "_ZTSN4Rcpp10RstreambufILb1EEE"
 "_ZTSN4Rcpp14not_compatibleE"
 "_ZTSN4Rcpp19index_out_of_boundsE"
 "_ZTSN4Rcpp8internal20InterruptedExceptionE"
 "_ZTSN4Rcpp8RostreamILb0EEE"
 "_ZTSN4Rcpp8RostreamILb1EEE"
 "_ZTSN4Rcpp9exceptionE"
 "_ZTSSt11logic_error"
 "_ZTSSt13runtime_error"
 "_ZTSSt9bad_alloc"
 "_ZTSSt9exception"
 "_ZTTN4Rcpp8RostreamILb0EEE"
 "_ZTTN4Rcpp8RostreamILb1EEE"
 "_ZTv0_n24_N4Rcpp8RostreamILb0EED0Ev"
 "_ZTv0_n24_N4Rcpp8RostreamILb0EED1Ev"
 "_ZTv0_n24_N4Rcpp8RostreamILb1EED0Ev"
 "_ZTv0_n24_N4Rcpp8RostreamILb1EED1Ev"
 "_ZTV30logLike_link_term_helper_logit"
 "_ZTV32logLike_link_term_helper_cloglog"
 "_ZTVN4Rcpp10eval_errorE"
 "_ZTVN4Rcpp10RstreambufILb0EEE"
 "_ZTVN4Rcpp10RstreambufILb1EEE"
 "_ZTVN4Rcpp14not_compatibleE"
 "_ZTVN4Rcpp19index_out_of_boundsE"
 "_ZTVN4Rcpp8RostreamILb0EEE"
 "_ZTVN4Rcpp8RostreamILb1EEE"
 "_ZTVN4Rcpp9exceptionE"
 "_ZZ7dataptrP7SEXPRECE3fun"
 "_Z17get_risk_obj_rcppRKN4Rcpp6VectorILi14ENS_15PreserveStorageEEES4_RKNS0_ILi10ES1_EERKdRKNS0_ILi13ES1_EES9_SC_SC_RKb"
 "_Z7dataptrP7SEXPREC"
 "_ZGVZ7dataptrP7SEXPRECE3fun"
 "_ZGVZ9get_cacheiE3fun"
 "_ZN4Rcpp10RstreambufILb0EE4syncEv"
 "_ZN4Rcpp10RstreambufILb0EE6xsputnEPKcx"
 "_ZN4Rcpp10RstreambufILb0EE8overflowEi"
 "_ZN4Rcpp10RstreambufILb0EED0Ev"
 "_ZN4Rcpp10RstreambufILb0EED1Ev"
 "_ZN4Rcpp10RstreambufILb1EE4syncEv"
 "_ZN4Rcpp10RstreambufILb1EE6xsputnEPKcx"
 "_ZN4Rcpp10RstreambufILb1EE8overflowEi"
 "_ZN4Rcpp10RstreambufILb1EED0Ev"
 "_ZN4Rcpp10RstreambufILb1EED1Ev"
 "_ZN4Rcpp14not_compatibleD0Ev"
 "_ZN4Rcpp14not_compatibleD1Ev"
 "_ZN4Rcpp15PreserveStorageINS_6VectorILi14ES0_EEE5set__EP7SEXPREC"
 "_ZN4Rcpp18Rcpp_ReplaceObjectEP7SEXPRECS1_"
 "_ZN4Rcpp19index_out_of_boundsD0Ev"
 "_ZN4Rcpp19index_out_of_boundsD1Ev"
 "_ZN4Rcpp4stopERKSs"
 "_ZN4Rcpp6r_castILi14EEEP7SEXPRECS2_"
 "_ZN4Rcpp6VectorILi14ENS_15PreserveStorageEE16push_front__implERKdNS_6traits17integral_constantIbLb0EEE"
 "_ZN4Rcpp6VectorILi19ENS_15PreserveStorageEE16create__dispatchINS_6traits12named_objectIS2_EENS5_IdEENS5_INS0_ILi14ES1_EEEES9_NS5_IjEENS5_INS0_ILi13ES1_EEEENS5_IbEEEES2_NS4_17integral_constantIbLb1EEERKT_RKT0_RKT1_RKT2_RKT3_RKT4_RKT5_"
 "_ZN4Rcpp8internal10basic_castILi14EEEP7SEXPRECS3_"
 "_ZN4Rcpp8internal13r_init_vectorILi14EEEvP7SEXPREC"
 "_ZN4Rcpp8RostreamILb0EED0Ev"
 "_ZN4Rcpp8RostreamILb0EED1Ev"
 "_ZN4Rcpp8RostreamILb1EED0Ev"
 "_ZN4Rcpp8RostreamILb1EED1Ev"
 "_ZN4Rcpp9exceptionD0Ev"
 "_ZN4Rcpp9exceptionD1Ev"
 "_ZNK4Rcpp14not_compatible4whatEv"
 "_ZNK4Rcpp19index_out_of_bounds4whatEv"
 "_ZNK4Rcpp5sugar25Comparator_With_One_ValueILi14ENS0_13less_or_equalILi14EEELb1ENS_6VectorILi14ENS_15PreserveStorageEEEE13rhs_is_not_naEi"
 "_ZNK4Rcpp5sugar25Comparator_With_One_ValueILi14ENS0_13less_or_equalILi14EEELb1ENS_6VectorILi14ENS_15PreserveStorageEEEE9rhs_is_naEi"
 "_ZNK4Rcpp9exception4whatEv"
 "_ZNSt6vectorIiSaIiEE12emplace_backIIiEEEvDpOT_"
 "_ZNSt6vectorIiSaIiEE19_M_emplace_back_auxIIiEEEvDpOT_"
 "_ZNSt6vectorIiSaIiEE19_M_emplace_back_auxIIRKiEEEvDpOT_"
 "_ZNSt6vectorIiSaIiEE7reserveEy"
 "_ZSt13__adjust_heapIPdxdN9__gnu_cxx5__ops15_Iter_comp_iterIN4Rcpp8internal12NAComparatorIdEEEEEvT_T0_SA_T1_T2_"
 "_ZSt13__heap_selectIPdN9__gnu_cxx5__ops15_Iter_comp_iterIN4Rcpp8internal12NAComparatorIdEEEEEvT_S9_S9_T0_"
 "_ZSt16__introsort_loopIPdxN9__gnu_cxx5__ops15_Iter_comp_iterIN4Rcpp8internal12NAComparatorIdEEEEEvT_S9_T0_T1_"
 "_ZTCN4Rcpp8RostreamILb0EEE0_So"
 "_ZTCN4Rcpp8RostreamILb1EEE0_So"
 "_ZTIN4Rcpp10RstreambufILb0EEE"
 "_ZTIN4Rcpp10RstreambufILb1EEE"
 "_ZTIN4Rcpp14not_compatibleE"
 "_ZTIN4Rcpp19index_out_of_boundsE"
 "_ZTIN4Rcpp8RostreamILb0EEE"
 "_ZTIN4Rcpp8RostreamILb1EEE"
 "_ZTIN4Rcpp9exceptionE"
 "_ZTISt9exception"
 "_ZTSN4Rcpp10RstreambufILb0EEE"
 "_ZTSN4Rcpp10RstreambufILb1EEE"
 "_ZTSN4Rcpp14not_compatibleE"
 "_ZTSN4Rcpp19index_out_of_boundsE"
 "_ZTSN4Rcpp8RostreamILb0EEE"
 "_ZTSN4Rcpp8RostreamILb1EEE"
 "_ZTSN4Rcpp9exceptionE"
 "_ZTSSt9exception"
 "_ZTTN4Rcpp8RostreamILb0EEE"
 "_ZTTN4Rcpp8RostreamILb1EEE"
 "_ZTv0_n24_N4Rcpp8RostreamILb0EED0Ev"
 "_ZTv0_n24_N4Rcpp8RostreamILb0EED1Ev"
 "_ZTv0_n24_N4Rcpp8RostreamILb1EED0Ev"
 "_ZTv0_n24_N4Rcpp8RostreamILb1EED1Ev"
 "_ZTVN4Rcpp10RstreambufILb0EEE"
 "_ZTVN4Rcpp10RstreambufILb1EEE"
 "_ZTVN4Rcpp14not_compatibleE"
 "_ZTVN4Rcpp19index_out_of_boundsE"
 "_ZTVN4Rcpp8RostreamILb0EEE"
 "_ZTVN4Rcpp8RostreamILb1EEE"
 "_ZTVN4Rcpp9exceptionE"
 "_ZZ7dataptrP7SEXPRECE3fun"
 "_ZZ9get_cacheiE3fun"
 "__emutls_v.local_work_queue"
 "__emutls_v.my_index"
 "_ZN12join_threadsC1ERSt6vectorISt6threadSaIS1_EE"
 "_ZN12join_threadsC2ERSt6vectorISt6threadSaIS1_EE"
 "_ZN12join_threadsD1Ev"
 "_ZN12join_threadsD2Ev"
 "_ZN19work_stealing_queue4pushE16function_wrapper"
 "_ZN19work_stealing_queue7try_popER16function_wrapper"
 "_ZN19work_stealing_queue9try_stealER16function_wrapper"
 "_ZNK19work_stealing_queue5emptyEv"
 "_ZNSt5dequeI16function_wrapperSaIS0_EE17_M_push_front_auxIIS0_EEEvDpOT_"
 "Cdqrls"
 "includ_"
 "regcf_"
 "singchk_"
 "tolset_"
